 Land

 Timestamp is 58f76bc8 (Wed Apr 19 21:53:12 2017)

 Preferred load address is 00400000

 Start         Length     Name                   Class
 0001:00000000 000181aaH .text                   CODE
 0001:000181b0 000016c3H .text$x                 CODE
 0001:00019880 000000caH .text$yc                CODE
 0001:00019950 00000048H .text$yd                CODE
 0002:00000000 0000094cH .idata$5                DATA
 0002:00000950 00003550H .rdata                  DATA
 0002:00003ea0 0000007bH .rdata$debug            DATA
 0002:00003f1c 00000044H .rdata$r                DATA
 0002:00003f60 00000148H .rdata$sxdata           DATA
 0002:000040a8 00000004H .rtc$IAA                DATA
 0002:000040ac 00000004H .rtc$IZZ                DATA
 0002:000040b0 00000004H .rtc$TAA                DATA
 0002:000040b4 00000004H .rtc$TZZ                DATA
 0002:000040b8 000015fcH .xdata$x                DATA
 0002:000056b4 00000004H ATL$__a                 DATA
 0002:000056b8 00000004H ATL$__z                 DATA
 0002:000056bc 00000118H .idata$2                DATA
 0002:000057d4 00000014H .idata$3                DATA
 0002:000057e8 0000094cH .idata$4                DATA
 0002:00006134 000039b4H .idata$6                DATA
 0002:00009ae8 00000000H .edata                  DATA
 0003:00000000 00000004H .CRT$XCA                DATA
 0003:00000004 00000004H .CRT$XCAA               DATA
 0003:00000008 00000008H .CRT$XCL                DATA
 0003:00000010 00000014H .CRT$XCU                DATA
 0003:00000024 00000004H .CRT$XCZ                DATA
 0003:00000028 00000004H .CRT$XIA                DATA
 0003:0000002c 00000004H .CRT$XIZ                DATA
 0003:00000030 000000f0H .data                   DATA
 0003:00000120 00000f38H .bss                    DATA
 0004:00000000 0000314cH .rsrc$01                DATA
 0004:00003150 0091d398H .rsrc$02                DATA

  Address         Publics by Value              Rva+Base     Lib:Object

 0000:00000000       __except_list              00000000     <absolute>
 0000:00000052       ___safe_se_handler_count   00000052     <absolute>
 0000:00009876       __ldused                   00009876     <absolute>
 0000:00009876       __fltused                  00009876     <absolute>
 0000:00000000       ___ImageBase               00400000     <linker-defined>
 0001:00000000       ?GetCardValue@CGameLogic@@QAEEE@Z 00401000 f i CardControl.obj
 0001:00000010       ??1CCardResource@@UAE@XZ   00401010 f   CardControl.obj
 0001:000000b0       ?DestroyHandCard@CCardResource@@QAEXPAVCD3DDevice@@@Z 004010b0 f   CardControl.obj
 0001:000000f0       ?GetCardSize@CCardResource@@QAEXEAAVCSize@@@Z 004010f0 f   CardControl.obj
 0001:00000190       ?GetCardTexture@CCardResource@@QAEXEPAPAVCD3DSprite@@@Z 00401190 f   CardControl.obj
 0001:00000220       ??1CCardControl@@UAE@XZ    00401220 f   CardControl.obj
 0001:00000280       ?SetCardData@CCardControl@@QAE_NE@Z 00401280 f   CardControl.obj
 0001:000002d0       ?SetCardData@CCardControl@@QAE_NQAEE@Z 004012d0 f   CardControl.obj
 0001:00000320       ?SetShootArea@CCardControl@@QAE_NEE@Z 00401320 f   CardControl.obj
 0001:00000380       ?SetSelectIndex@CCardControl@@QAE_NEE@Z 00401380 f   CardControl.obj
 0001:000003a0       ?SetShootCard@CCardControl@@QAE_NQAEE@Z 004013a0 f   CardControl.obj
 0001:00000430       ?SetShootSameCard@CCardControl@@QAE_NE@Z 00401430 f   CardControl.obj
 0001:000004c0       ?SetShootOrderCard@CCardControl@@QAE_NEE@Z 004014c0 f   CardControl.obj
 0001:000006e0       ?ShowOutCard@CCardControl@@QAE_NQAEE@Z 004016e0 f   CardControl.obj
 0001:00000740       ?RemoveShootItem@CCardControl@@QAE_NXZ 00401740 f   CardControl.obj
 0001:00000800       ?MoveCardItem@CCardControl@@QAE_NE@Z 00401800 f   CardControl.obj
 0001:00000930       ?SwitchCardItem@CCardControl@@QAE_NEE@Z 00401930 f   CardControl.obj
 0001:000009d0       ?GetCardFromIndex@CCardControl@@QAEPAUtagCardItem@@E@Z 004019d0 f   CardControl.obj
 0001:000009f0       ?GetCardData@CCardControl@@QAEEQAEE@Z 004019f0 f   CardControl.obj
 0001:00000a30       ?GetShootCard@CCardControl@@QAEEQAEE@Z 00401a30 f   CardControl.obj
 0001:00000a80       ?SetShowCount@CCardControl@@QAEXE@Z 00401a80 f   CardControl.obj
 0001:00000a90       ?SetBackGround@CCardControl@@QAEXE@Z 00401a90 f   CardControl.obj
 0001:00000aa0       ?SetCardDistance@CCardControl@@QAEXHHH@Z 00401aa0 f   CardControl.obj
 0001:00000ac0       ?SetDispatchPos@CCardControl@@QAEXHH@Z 00401ac0 f   CardControl.obj
 0001:00000b20       ?SetBenchmarkPos@CCardControl@@QAEXHHW4enXCollocateMode@@W4enYCollocateMode@@@Z 00401b20 f   CardControl.obj
 0001:00000b40       ?DestroyHandCard@CCardControl@@SAXPAVCD3DDevice@@@Z 00401b40 f   CardControl.obj
 0001:00000b80       ?Setpartition@CCardControl@@QAEXHH@Z 00401b80 f   CardControl.obj
 0001:00000ba0       ??0CSize@@QAE@XZ           00401ba0 f i CardControl.obj
 0001:00000bb0       ?SetSize@CSize@@QAEXHH@Z   00401bb0 f i CardControl.obj
 0001:00000bc0       ??0CPoint@@QAE@XZ          00401bc0 f i CardControl.obj
 0001:00000bd0       ?SetPoint@CPoint@@QAEXHH@Z 00401bd0 f i CardControl.obj
 0001:00000be0       ?AfxGetInstanceHandle@@YGPAUHINSTANCE__@@XZ 00401be0 f i CardControl.obj
 0001:00000bf0       ?SendMessageW@CWnd@@QAEJIIJ@Z 00401bf0 f i CardControl.obj
 0001:00000c10       ??_H@YGXPAXIHP6EPAX0@Z@Z   00401c10 f i CardControl.obj
 0001:00000c40       ??0CCardResource@@QAE@XZ   00401c40 f   CardControl.obj
 0001:00000ce0       ??_ECCardResource@@UAEPAXI@Z 00401ce0 f i CardControl.obj
 0001:00000ce0       ??_GCCardResource@@UAEPAXI@Z 00401ce0 f i CardControl.obj
 0001:00000d00       ?Initialize@CCardResource@@QAEXPAVCD3DDevice@@@Z 00401d00 f   CardControl.obj
 0001:00000e20       ?LoadHandCard@CCardResource@@QAEXPAVCD3DDevice@@@Z 00401e20 f   CardControl.obj
 0001:00000f10       ??0CCardControl@@QAE@XZ    00401f10 f   CardControl.obj
 0001:00000fe0       ??_ECCardControl@@UAEPAXI@Z 00401fe0 f i CardControl.obj
 0001:00000fe0       ??_GCCardControl@@UAEPAXI@Z 00401fe0 f i CardControl.obj
 0001:00001000       ?CartoonMovie@CCardControl@@QAEXXZ 00402000 f   CardControl.obj
 0001:00001060       ?GetControlSize@CCardControl@@QAEXAAVCSize@@@Z 00402060 f   CardControl.obj
 0001:000010f0       ?GetOriginPoint@CCardControl@@QAEXAAVCPoint@@@Z 004020f0 f   CardControl.obj
 0001:000011d0       ?SwitchCardPoint@CCardControl@@QAEEAAVCPoint@@@Z 004021d0 f   CardControl.obj
 0001:000012c0       ?LoadCardResource@CCardControl@@SAXPAVCD3DDevice@@@Z 004022c0 f   CardControl.obj
 0001:000012d0       ?LoadHandCard@CCardControl@@SAXPAVCD3DDevice@@@Z 004022d0 f   CardControl.obj
 0001:000012e0       ?GetCardFromPoint@CCardControl@@QAEPAUtagCardItem@@AAVCPoint@@@Z 004022e0 f   CardControl.obj
 0001:00001310       ?GetCenterPoint@CCardControl@@QAEXAAVCPoint@@@Z 00402310 f   CardControl.obj
 0001:00001360       ?OnEventSetCursor@CCardControl@@QAE_NVCPoint@@@Z 00402360 f   CardControl.obj
 0001:000013a0       ?DrawCardControl@CCardControl@@QAEXPAVCD3DDevice@@@Z 004023a0 f   CardControl.obj
 0001:000016e0       ?GetThisMessageMap@CChatEdit@@KGPBUAFX_MSGMAP@@XZ 004026e0 f   ChatEdit.obj
 0001:000016f0       ?GetMessageMap@CChatEdit@@MBEPBUAFX_MSGMAP@@XZ 004026f0 f   ChatEdit.obj
 0001:00001700       ?SetHideWindow@CChatEdit@@QAEX_N@Z 00402700 f   ChatEdit.obj
 0001:00001730       ?PreSubclassWindow@CChatEdit@@MAEXXZ 00402730 f   ChatEdit.obj
 0001:00001740       ?OnVScroll@CChatEdit@@QAEXIIPAVCScrollBar@@@Z 00402740 f   ChatEdit.obj
 0001:00001770       ?OnEnVscroll@CChatEdit@@IAEXXZ 00402770 f   ChatEdit.obj
 0001:00001780       ??0CRect@@QAE@XZ           00402780 f i ChatEdit.obj
 0001:00001790       ??0CRect@@QAE@HHHH@Z       00402790 f i ChatEdit.obj
 0001:000017b0       ??0CObject@@IAE@XZ         004027b0 f i ChatEdit.obj
 0001:000017c0       ??1CObject@@UAE@XZ         004027c0 f i ChatEdit.obj
 0001:000017d0       ?GetSafeHandle@CGdiObject@@QBEPAXXZ 004027d0 f i ChatEdit.obj
 0001:000017e0       ??0CGdiObject@@QAE@XZ      004027e0 f i ChatEdit.obj
 0001:000017f0       ?Serialize@CObject@@UAEXAAVCArchive@@@Z 004027f0 f i ChatEdit.obj
 0001:00001800       ?AssertValid@CObject@@UBEXXZ 00402800 f i ChatEdit.obj
 0001:00001810       ?Dump@CObject@@UBEXAAVCDumpContext@@@Z 00402810 f i ChatEdit.obj
 0001:00001820       ??1CGdiObject@@UAE@XZ      00402820 f i ChatEdit.obj
 0001:00001830       ??0CFont@@QAE@XZ           00402830 f i ChatEdit.obj
 0001:00001840       ??1CFont@@UAE@XZ           00402840 f i ChatEdit.obj
 0001:00001850       ?CreateFontIndirectW@CFont@@QAEHPBUtagLOGFONTW@@@Z 00402850 f i ChatEdit.obj
 0001:00001870       ?GetLogFont@CFont@@QAEHPAUtagLOGFONTW@@@Z 00402870 f i ChatEdit.obj
 0001:00001890       ?SetFont@CWnd@@QAEXPAVCFont@@H@Z 00402890 f i ChatEdit.obj
 0001:000018d0       ?GetWindowRect@CWnd@@QBEXPAUtagRECT@@@Z 004028d0 f i ChatEdit.obj
 0001:000018f0       ?GetClientRect@CWnd@@QBEXPAUtagRECT@@@Z 004028f0 f i ChatEdit.obj
 0001:00001910       ?Invalidate@CWnd@@QAEXH@Z  00402910 f i ChatEdit.obj
 0001:00001930       ?GetParent@CWnd@@QBEPAV1@XZ 00402930 f i ChatEdit.obj
 0001:00001950       ?OnCreate@CWnd@@IAEHPAUtagCREATESTRUCTW@@@Z 00402950 f i ChatEdit.obj
 0001:00001960       ?OnNcCalcSize@CWnd@@IAEXHPAUtagNCCALCSIZE_PARAMS@@@Z 00402960 f i ChatEdit.obj
 0001:00001970       ?OnChar@CWnd@@IAEXIII@Z    00402970 f i ChatEdit.obj
 0001:00001980       ??0CRichEditCtrl@@QAE@XZ   00402980 f i ChatEdit.obj
 0001:000019a0       ?DoDataExchange@CWnd@@MAEXPAVCDataExchange@@@Z 004029a0 f i ChatEdit.obj
 0001:000019b0       ?BeginModalState@CWnd@@UAEXXZ 004029b0 f i ChatEdit.obj
 0001:000019c0       ?EndModalState@CWnd@@UAEXXZ 004029c0 f i ChatEdit.obj
 0001:000019d0       ??_GCRichEditCtrl@@UAEPAXI@Z 004029d0 f i ChatEdit.obj
 0001:000019d0       ??_ECRichEditCtrl@@UAEPAXI@Z 004029d0 f i ChatEdit.obj
 0001:000019f0       ?SetEventMask@CRichEditCtrl@@QAEKK@Z 004029f0 f i ChatEdit.obj
 0001:00001a10       ??0CChatEdit@@QAE@XZ       00402a10 f   ChatEdit.obj
 0001:00001ab0       ??1CChatEdit@@UAE@XZ       00402ab0 f   ChatEdit.obj
 0001:00001b30       ?Initialization@CChatEdit@@QAEXXZ 00402b30 f   ChatEdit.obj
 0001:00001c60       ?RectifyControl@CChatEdit@@QAEXHH@Z 00402c60 f   ChatEdit.obj
 0001:00001cc0       ?SetTextColor@CChatEdit@@QAEXK@Z 00402cc0 f   ChatEdit.obj
 0001:00001ce0       ?SetTextFont@CChatEdit@@QAEXABUtagLOGFONTW@@@Z 00402ce0 f   ChatEdit.obj
 0001:00001d40       ?GetTextFont@CChatEdit@@QAEHAAUtagLOGFONTW@@@Z 00402d40 f   ChatEdit.obj
 0001:00001d60       ?OnCreate@CChatEdit@@QAEHPAUtagCREATESTRUCTW@@@Z 00402d60 f   ChatEdit.obj
 0001:00001da0       ?OnChar@CChatEdit@@QAEXIII@Z 00402da0 f   ChatEdit.obj
 0001:00001db0       ?OnNcCalcSize@CChatEdit@@QAEXHPAUtagNCCALCSIZE_PARAMS@@@Z 00402db0 f   ChatEdit.obj
 0001:00001dd0       ?DrawScrollBar@CChatEdit@@QAEXXZ 00402dd0 f   ChatEdit.obj
 0001:00001df0       ??_GCGdiObject@@UAEPAXI@Z  00402df0 f i ChatEdit.obj
 0001:00001df0       ??_ECGdiObject@@UAEPAXI@Z  00402df0 f i ChatEdit.obj
 0001:00001e10       ??_GCFont@@UAEPAXI@Z       00402e10 f i ChatEdit.obj
 0001:00001e10       ??_ECFont@@UAEPAXI@Z       00402e10 f i ChatEdit.obj
 0001:00001e30       ??_GCChatEdit@@UAEPAXI@Z   00402e30 f i ChatEdit.obj
 0001:00001e30       ??_ECChatEdit@@UAEPAXI@Z   00402e30 f i ChatEdit.obj
 0001:00001e50       ??0CChatMessage@@QAE@XZ    00402e50 f   ChatMessage.obj
 0001:00001e70       ??1CChatMessage@@UAE@XZ    00402e70 f   ChatMessage.obj
 0001:00001e90       ?InsertUserChat@CChatMessage@@UAE_NPB_W0K@Z 00402e90 f   ChatMessage.obj
 0001:00001f40       ??_GCChatMessage@@UAEPAXI@Z 00402f40 f i ChatMessage.obj
 0001:00001f40       ??_ECChatMessage@@UAEPAXI@Z 00402f40 f i ChatMessage.obj
 0001:00001f60       ??0CGameClientApp@@QAE@XZ  00402f60 f   GameClient.obj
 0001:00001f80       ??1CGameClientApp@@UAE@XZ  00402f80 f   GameClient.obj
 0001:00001f90       ??3CObject@@SGXPAX@Z       00402f90 f i GameClient.obj
 0001:00001fa0       ??2CObject@@SGPAXI@Z       00402fa0 f i GameClient.obj
 0001:00001fb0       ?GetProductVer@@YAEK@Z     00402fb0 f i GameClient.obj
 0001:00001fc0       ?GetMainVer@@YAEK@Z        00402fc0 f i GameClient.obj
 0001:00001fd0       ?GetSubVer@@YAEK@Z         00402fd0 f i GameClient.obj
 0001:00001fe0       ?GetBuildVer@@YAEK@Z       00402fe0 f i GameClient.obj
 0001:00001ff0       ?InterfaceVersionCompare@@YA_NKK@Z 00402ff0 f i GameClient.obj
 0001:00002030       ??_GCGameClientApp@@UAEPAXI@Z 00403030 f i GameClient.obj
 0001:00002030       ??_ECGameClientApp@@UAEPAXI@Z 00403030 f i GameClient.obj
 0001:00002050       ?GetGameFrameWnd@CGameClientApp@@UAEPAVCGameFrameWnd@@XZ 00403050 f   GameClient.obj
 0001:000020b0       ?GetGameFrameEngine@CGameClientApp@@UAEPAVCGameFrameEngine@@K@Z 004030b0 f   GameClient.obj
 0001:00002130       ?IsOutCard@CCardControl@@QAE_NXZ 00403130 f i GameClientEngine.obj
 0001:00002140       ?GetCardCount@CCardControl@@QAEEXZ 00403140 f i GameClientEngine.obj
 0001:00002150       ?SetPositively@CCardControl@@QAEX_N@Z 00403150 f i GameClientEngine.obj
 0001:00002160       ?SetDisplayItem@CCardControl@@QAEX_N@Z 00403160 f i GameClientEngine.obj
 0001:00002170       ?SetUserTrustee@CGameClientView@@QAEXG_N@Z 00403170 f i GameClientEngine.obj
 0001:00002190       ?SetChangeTimePos@CGameClientView@@QAEX_N@Z 00403190 f i GameClientEngine.obj
 0001:000021a0       ?GetThisMessageMap@CGameClientEngine@@KGPBUAFX_MSGMAP@@XZ 004031a0 f   GameClientEngine.obj
 0001:000021b0       ?GetMessageMap@CGameClientEngine@@MBEPBUAFX_MSGMAP@@XZ 004031b0 f   GameClientEngine.obj
 0001:000021c0       ??0CGameClientEngine@@QAE@XZ 004031c0 f   GameClientEngine.obj
 0001:00002320       ??1CGameClientEngine@@UAE@XZ 00403320 f   GameClientEngine.obj
 0001:000023b0       ?OnEventGameClockKill@CGameClientEngine@@UAE_NG@Z 004033b0 f   GameClientEngine.obj
 0001:000023c0       ?OnSubBankerInfo@CGameClientEngine@@IAE_NPAXG@Z 004033c0 f   GameClientEngine.obj
 0001:000024e0       ?VerdictOutCard@CGameClientEngine@@QAE_NXZ 004034e0 f   GameClientEngine.obj
 0001:000025c0       ?PerformAutoStart@CGameClientEngine@@QAE_NXZ 004035c0 f   GameClientEngine.obj
 0001:000026b0       ?UpdateButtonControl@CGameClientEngine@@QAEXXZ 004036b0 f   GameClientEngine.obj
 0001:000026c0       ?OnEventUserStatus@CGameClientEngine@@UAEXPAUIClientUserItem@@_N@Z 004036c0 f   GameClientEngine.obj
 0001:00002720       ?OnMessageCallScore@CGameClientEngine@@IAEJIJ@Z 00403720 f   GameClientEngine.obj
 0001:00002780       ?OnMessageLeftHitCard@CGameClientEngine@@IAEJIJ@Z 00403780 f   GameClientEngine.obj
 0001:000027a0       ?Width@CRect@@QBEHXZ       004037a0 f i GameClientEngine.obj
 0001:000027b0       ?Height@CRect@@QBEHXZ      004037b0 f i GameClientEngine.obj
 0001:000027c0       ?OnMessageSearchCard@CGameClientEngine@@IAEJIJ@Z 004037c0 f   GameClientEngine.obj
 0001:00002c80       ?OnMessageEnableHistory@CGameClientEngine@@IAEJIJ@Z 00403c80 f   GameClientEngine.obj
 0001:00002ca0       ?OnMessageOutCardFinish@CGameClientEngine@@IAEJIJ@Z 00403ca0 f   GameClientEngine.obj
 0001:00002f00       ?OnMessageDispatchFinish@CGameClientEngine@@IAEJIJ@Z 00403f00 f   GameClientEngine.obj
 0001:00003150       ?MoveSoreControl@CGameClientEngine@@QAEXHH@Z 00404150 f   GameClientEngine.obj
 0001:00003160       ??9ATL@@YA_NABV?$CStringT@_WV?$StrTraitMFC_DLL@_WV?$ChTraitsCRT@_W@ATL@@@@@0@PB_W@Z 00404160 f i GameClientEngine.obj
 0001:00003180       ?AfxGetMainWnd@@YGPAVCWnd@@XZ 00404180 f i GameClientEngine.obj
 0001:000031a0       ?PostMessageW@CWnd@@QAEHIIJ@Z 004041a0 f i GameClientEngine.obj
 0001:000031c0       ?SetTimer@CWnd@@QAEIIIP6GXPAUHWND__@@IIK@Z@Z 004041c0 f i GameClientEngine.obj
 0001:000031e0       ?KillTimer@CWnd@@QAEHI@Z   004041e0 f i GameClientEngine.obj
 0001:00003200       ?OnTimer@CWnd@@IAEXI@Z     00404200 f i GameClientEngine.obj
 0001:00003210       ??_GCGameClientEngine@@UAEPAXI@Z 00404210 f i GameClientEngine.obj
 0001:00003210       ??_ECGameClientEngine@@UAEPAXI@Z 00404210 f i GameClientEngine.obj
 0001:00003230       ?OnInitGameEngine@CGameClientEngine@@UAE_NXZ 00404230 f   GameClientEngine.obj
 0001:00003290       ?OnResetGameEngine@CGameClientEngine@@UAE_NXZ 00404290 f   GameClientEngine.obj
 0001:00003370       ?OnEventLookonMode@CGameClientEngine@@UAE_NPAXG@Z 00404370 f   GameClientEngine.obj
 0001:000033f0       ?OnEventSceneMessage@CGameClientEngine@@UAE_NE_NPAXG@Z 004043f0 f   GameClientEngine.obj
 0001:00003f40       ?OnSubGameStart@CGameClientEngine@@IAE_NPAXG@Z 00404f40 f   GameClientEngine.obj
 0001:00004380       ?OnSubCallScore@CGameClientEngine@@IAE_NPAXG@Z 00405380 f   GameClientEngine.obj
 0001:00004700       ?OnSubCheatCard@CGameClientEngine@@IAE_NPAXG@Z 00405700 f   GameClientEngine.obj
 0001:000048c0       ?SwitchToCurrentCard@CGameClientEngine@@QAE_NXZ 004058c0 f   GameClientEngine.obj
 0001:000049d0       ?PlayOutCardSound@CGameClientEngine@@QAEXGQAEE@Z 004059d0 f   GameClientEngine.obj
 0001:00004d90       ?OnTimer@CGameClientEngine@@IAEXI@Z 00405d90 f   GameClientEngine.obj
 0001:000050e0       ?OnMessageStart@CGameClientEngine@@IAEJIJ@Z 004060e0 f   GameClientEngine.obj
 0001:00005210       ?OnMessageOutCard@CGameClientEngine@@IAEJIJ@Z 00406210 f   GameClientEngine.obj
 0001:00005600       ?OnMessagePassCard@CGameClientEngine@@IAEJIJ@Z 00406600 f   GameClientEngine.obj
 0001:00005740       ?OnMessageOutPrompt@CGameClientEngine@@IAEJIJ@Z 00406740 f   GameClientEngine.obj
 0001:000057e0       ?OnMessageSortHandCard@CGameClientEngine@@IAEJIJ@Z 004067e0 f   GameClientEngine.obj
 0001:00005940       ?OnMessageLastTurnCard@CGameClientEngine@@IAEJIJ@Z 00406940 f   GameClientEngine.obj
 0001:00005a60       ?OnMessageTrusteeControl@CGameClientEngine@@IAEJIJ@Z 00406a60 f   GameClientEngine.obj
 0001:00005b70       ?OnMessageReversalFinish@CGameClientEngine@@IAEJIJ@Z 00406b70 f   GameClientEngine.obj
 0001:00005ec0       ?AllowBackGroundSound@CGameClientEngine@@UAE_N_N@Z 00406ec0 f   GameClientEngine.obj
 0001:00005f20       ?PlayAgain@CGameClientEngine@@QAEXXZ 00406f20 f   GameClientEngine.obj
 0001:00005f30       ?ExitGame@CGameClientEngine@@QAEXXZ 00406f30 f   GameClientEngine.obj
 0001:00005f70       ?OnChatMessage@CGameClientEngine@@QAEJIJ@Z 00406f70 f   GameClientEngine.obj
 0001:00006180       ?OnMessageGameSound@CGameClientEngine@@IAEJIJ@Z 00407180 f   GameClientEngine.obj
 0001:000061d0       ?OnMessageGameClose@CGameClientEngine@@IAEJIJ@Z 004071d0 f   GameClientEngine.obj
 0001:00006380       ?OnSubOutCard@CGameClientEngine@@IAE_NPAXG@Z 00407380 f   GameClientEngine.obj
 0001:00006990       ?OnSubPassCard@CGameClientEngine@@IAE_NPAXG@Z 00407990 f   GameClientEngine.obj
 0001:00006cb0       ?OnSubGameConclude@CGameClientEngine@@IAE_NPAXG@Z 00407cb0 f   GameClientEngine.obj
 0001:00007280       ?AutomatismOutCard@CGameClientEngine@@QAE_NXZ 00408280 f   GameClientEngine.obj
 0001:00007350       ?OnEventGameClockInfo@CGameClientEngine@@UAE_NGIG@Z 00408350 f   GameClientEngine.obj
 0001:00007540       ?OnEventGameMessage@CGameClientEngine@@UAE_NGPAXG@Z 00408540 f   GameClientEngine.obj
 0001:00007690       ?GetPositively@CCardControl@@QAE_NXZ 00408690 f i GameClientView.obj
 0001:000076a0       ?SetSmallMode@CCardControl@@QAEX_N@Z 004086a0 f i GameClientView.obj
 0001:000076b0       ?SetDirection@CCardControl@@QAEX_N@Z 004086b0 f i GameClientView.obj
 0001:000076c0       ?SetCardType@CCardControl@@QAEXE@Z 004086c0 f i GameClientView.obj
 0001:000076d0       ?SetDrawOrder@CCardControl@@QAEX_N@Z 004086d0 f i GameClientView.obj
 0001:000076e0       ?GetThisMessageMap@CGameClientView@@KGPBUAFX_MSGMAP@@XZ 004086e0 f   GameClientView.obj
 0001:000076f0       ?GetMessageMap@CGameClientView@@MBEPBUAFX_MSGMAP@@XZ 004086f0 f   GameClientView.obj
 0001:00007700       ?OnLostDevice@CGameClientView@@UAEXPAVCD3DDevice@@HH@Z 00408700 f   GameClientView.obj
 0001:00007710       ?OnResetDevice@CGameClientView@@UAEXPAVCD3DDevice@@HH@Z 00408710 f   GameClientView.obj
 0001:00007730       ??0CRect@@QAE@PBUtagRECT@@@Z 00408730 f i GameClientView.obj
 0001:00007750       ?DrawNumber@CGameClientView@@QAEXPAVCD3DDevice@@PAVCD3DTexture@@PA_W2HHI@Z 00408750 f   GameClientView.obj
 0001:00007870       ?DrawUserTimerEx@CGameClientView@@QAEXPAVCD3DDevice@@HHG@Z 00408870 f   GameClientView.obj
 0001:00007a30       ??BCRect@@QAEPAUtagRECT@@XZ 00408a30 f i GameClientView.obj
 0001:00007a40       ?SetRect@CRect@@QAEXHHHH@Z 00408a40 f i GameClientView.obj
 0001:00007a60       ?OnBnClickedStart@CGameClientView@@QAEXXZ 00408a60 f   GameClientView.obj
 0001:00007a70       ?OnBnClickedOutCard@CGameClientView@@QAEXXZ 00408a70 f   GameClientView.obj
 0001:00007a80       ?OnBnClickedSortCard@CGameClientView@@QAEXXZ 00408a80 f   GameClientView.obj
 0001:00007a90       ?OnBnClickedLastTurn@CGameClientView@@QAEXXZ 00408a90 f   GameClientView.obj
 0001:00007aa0       ?OnBnClickedExpression@CGameClientView@@QAEXXZ 00408aa0 f   GameClientView.obj
 0001:00007ab0       ?OnBnClickedVoice@CGameClientView@@QAEXXZ 00408ab0 f   GameClientView.obj
 0001:00007ac0       ?OnBnClickedTrustee@CGameClientView@@QAEXXZ 00408ac0 f   GameClientView.obj
 0001:00007ad0       ?OnBnClickedCancelTrustee@CGameClientView@@QAEXXZ 00408ad0 f   GameClientView.obj
 0001:00007ae0       ?OnBnClickedPassCard@CGameClientView@@QAEXXZ 00408ae0 f   GameClientView.obj
 0001:00007af0       ?OnBnClickedOutPrompt@CGameClientView@@QAEXXZ 00408af0 f   GameClientView.obj
 0001:00007b00       ?OnBnClickedCallScore1@CGameClientView@@QAEXXZ 00408b00 f   GameClientView.obj
 0001:00007b10       ?OnBnClickedCallScore2@CGameClientView@@QAEXXZ 00408b10 f   GameClientView.obj
 0001:00007b20       ?OnBnClickedCallScore3@CGameClientView@@QAEXXZ 00408b20 f   GameClientView.obj
 0001:00007b30       ?OnBnClickedCallScoreNone@CGameClientView@@QAEXXZ 00408b30 f   GameClientView.obj
 0001:00007b50       ?OnRButtonUp@CGameClientView@@QAEXIVCPoint@@@Z 00408b50 f   GameClientView.obj
 0001:00007b90       ?UserValidCard@CGameClientView@@QAEXGQAEE@Z 00408b90 f   GameClientView.obj
 0001:00007cb0       ?SetTimeScale@CGameClientView@@QAEXG@Z 00408cb0 f   GameClientView.obj
 0001:00007cd0       ?SetScoreControlPos@CGameClientView@@QAEXHH@Z 00408cd0 f   GameClientView.obj
 0001:00007d30       ?AddComma@CGameClientView@@QAE?AV?$CStringT@_WV?$StrTraitMFC_DLL@_WV?$ChTraitsCRT@_W@ATL@@@@@ATL@@_J_N@Z 00408d30 f   GameClientView.obj
 0001:00007e80       ?OnDestroy@CGameClientView@@QAEXXZ 00408e80 f   GameClientView.obj
 0001:00007ea0       ??8ATL@@YA_NABV?$CStringT@_WV?$StrTraitMFC_DLL@_WV?$ChTraitsCRT@_W@ATL@@@@@0@0@Z 00408ea0 f i GameClientView.obj
 0001:00007ec0       ??BCBrush@@QBEPAUHBRUSH__@@XZ 00408ec0 f i GameClientView.obj
 0001:00007ed0       ??0CBrush@@QAE@XZ          00408ed0 f i GameClientView.obj
 0001:00007ee0       ??1CBrush@@UAE@XZ          00408ee0 f i GameClientView.obj
 0001:00007ef0       ?CreateSolidBrush@CBrush@@QAEHK@Z 00408ef0 f i GameClientView.obj
 0001:00007f10       ??BCWnd@@QBEPAUHWND__@@XZ  00408f10 f i GameClientView.obj
 0001:00007f20       ?GetSafeHwnd@CWnd@@QBEPAUHWND__@@XZ 00408f20 f i GameClientView.obj
 0001:00007f30       ?ScreenToClient@CWnd@@QBEXPAUtagPOINT@@@Z 00408f30 f i GameClientView.obj
 0001:00007f50       ?SetCapture@CWnd@@QAEPAV1@XZ 00408f50 f i GameClientView.obj
 0001:00007f70       ?OnSetCursor@CWnd@@IAEHPAV1@II@Z 00408f70 f i GameClientView.obj
 0001:00007f80       ?OnLButtonDblClk@CWnd@@IAEXIVCPoint@@@Z 00408f80 f i GameClientView.obj
 0001:00007f90       ?OnLButtonUp@CWnd@@IAEXIVCPoint@@@Z 00408f90 f i GameClientView.obj
 0001:00007fa0       ?OnMouseMove@CWnd@@IAEXIVCPoint@@@Z 00408fa0 f i GameClientView.obj
 0001:00007fb0       ??0CEdit@@QAE@XZ           00408fb0 f i GameClientView.obj
 0001:00007fd0       ??_ECEdit@@UAEPAXI@Z       00408fd0 f i GameClientView.obj
 0001:00007fd0       ??_GCEdit@@UAEPAXI@Z       00408fd0 f i GameClientView.obj
 0001:00007ff0       ?LimitText@CEdit@@QAEXH@Z  00408ff0 f i GameClientView.obj
 0001:00008010       ?SetLimitText@CEdit@@QAEXI@Z 00409010 f i GameClientView.obj
 0001:00008030       ?SetReadOnly@CRichEditCtrl@@QAEHH@Z 00409030 f i GameClientView.obj
 0001:00008050       ?SetBackgroundColor@CRichEditCtrl@@QAEKHK@Z 00409050 f i GameClientView.obj
 0001:00008070       ?IsForfendGameChat@CServerRule@@SA_NK@Z 00409070 f i GameClientView.obj
 0001:00008080       ?CanGameChat@CUserRight@@SA_NK@Z 00409080 f i GameClientView.obj
 0001:00008090       ??0CGameClientView@@QAE@XZ 00409090 f   GameClientView.obj
 0001:00008770       ??1CGameClientView@@UAE@XZ 00409770 f   GameClientView.obj
 0001:00008c30       ?ResetGameView@CGameClientView@@EAEXXZ 00409c30 f   GameClientView.obj
 0001:00008f60       ?RectifyControl@CGameClientView@@EAEXHH@Z 00409f60 f   GameClientView.obj
 0001:000097a0       ?CartoonMovie@CGameClientView@@MAEXXZ 0040a7a0 f   GameClientView.obj
 0001:00009c70       ?InitGameView@CGameClientView@@MAEXPAVCD3DDevice@@HH@Z 0040ac70 f   GameClientView.obj
 0001:0000a520       ?DrawGameView@CGameClientView@@MAEXPAVCD3DDevice@@HH@Z 0040b520 f   GameClientView.obj
 0001:0000bbd0       ?SetCellScore@CGameClientView@@QAEXJ@Z 0040cbd0 f   GameClientView.obj
 0001:0000bc20       ?SetBombCount@CGameClientView@@QAEXE@Z 0040cc20 f   GameClientView.obj
 0001:0000bc70       ?SetBankerUser@CGameClientView@@QAEXG@Z 0040cc70 f   GameClientView.obj
 0001:0000bcd0       ?SetBankerScore@CGameClientView@@QAEXE@Z 0040ccd0 f   GameClientView.obj
 0001:0000bd20       ?ShowBankerCard@CGameClientView@@QAEXQAE@Z 0040cd20 f   GameClientView.obj
 0001:0000bdd0       ?ShowGameScoreInfo@CGameClientView@@QAEXAAUtagScoreInfo@@_N@Z 0040cdd0 f   GameClientView.obj
 0001:0000bee0       ?DrawNumber@CGameClientView@@QAEXPAVCD3DDevice@@PAVCD3DTexture@@PA_W_JHHI@Z 0040cee0 f   GameClientView.obj
 0001:0000bf70       ?DrawNumber@CGameClientView@@QAEXPAVCD3DDevice@@PAVCD3DTexture@@PA_WV?$CStringT@_WV?$StrTraitMFC_DLL@_WV?$ChTraitsCRT@_W@ATL@@@@@ATL@@HHI@Z 0040cf70 f   GameClientView.obj
 0001:0000c050       ?ShowCartoonPlan@CGameClientView@@QAEX_N@Z 0040d050 f   GameClientView.obj
 0001:0000c170       ?ShowCartoonBomb@CGameClientView@@QAEX_N@Z 0040d170 f   GameClientView.obj
 0001:0000c280       ?ShowCartoonRocket@CGameClientView@@QAEX_N@Z 0040d280 f   GameClientView.obj
 0001:0000c420       ?SetLastTurnState@CGameClientView@@QAEX_N@Z 0040d420 f   GameClientView.obj
 0001:0000c4d0       ?SetWaitCallScore@CGameClientView@@QAEX_N@Z 0040d4d0 f   GameClientView.obj
 0001:0000c580       ?SetUserPassState@CGameClientView@@QAEXG_N@Z 0040d580 f   GameClientView.obj
 0001:0000c660       ?SetUserCountWarn@CGameClientView@@QAEXG_N@Z 0040d660 f   GameClientView.obj
 0001:0000c850       ?SetUserCallScore@CGameClientView@@QAEXGE@Z 0040d850 f   GameClientView.obj
 0001:0000c930       ?SetHistoryScore@CGameClientView@@QAEXGPAUtagHistoryScore@@@Z 0040d930 f   GameClientView.obj
 0001:0000c990       ?StopDispatchCard@CGameClientView@@QAEXXZ 0040d990 f   GameClientView.obj
 0001:0000ca60       ?ShowDispatchCard@CGameClientView@@QAEXQAEG@Z 0040da60 f   GameClientView.obj
 0001:0000cb70       ?OnBnClickedScore@CGameClientView@@QAEXXZ 0040db70 f   GameClientView.obj
 0001:0000cc10       ?OnBnClickedSwitchSence@CGameClientView@@QAEXXZ 0040dc10 f   GameClientView.obj
 0001:0000cc80       ?OnLButtonUp@CGameClientView@@QAEXIVCPoint@@@Z 0040dc80 f   GameClientView.obj
 0001:0000cee0       ?OnMouseMove@CGameClientView@@QAEXIVCPoint@@@Z 0040dee0 f   GameClientView.obj
 0001:0000cfe0       ?OnLButtonDown@CGameClientView@@QAEXIVCPoint@@@Z 0040dfe0 f   GameClientView.obj
 0001:0000d0e0       ?OnLButtonDblClk@CGameClientView@@QAEXIVCPoint@@@Z 0040e0e0 f   GameClientView.obj
 0001:0000d190       ?OnSetCursor@CGameClientView@@QAEHPAVCWnd@@II@Z 0040e190 f   GameClientView.obj
 0001:0000d1f0       ?SetUserAvatar@CGameClientView@@QAEX_N@Z 0040e1f0 f   GameClientView.obj
 0001:0000d2b0       ?OnCtlColor@CGameClientView@@QAEPAUHBRUSH__@@PAVCDC@@PAVCWnd@@I@Z 0040e2b0 f   GameClientView.obj
 0001:0000d330       ?ShowChatMessage@CGameClientView@@QAEXPB_W0@Z 0040e330 f   GameClientView.obj
 0001:0000d4d0       ?ShowCartoonLine@CGameClientView@@QAEX_NE@Z 0040e4d0 f   GameClientView.obj
 0001:0000d690       ?EfficacyUserChat@CGameClientView@@QAE_NPB_WG@Z 0040e690 f   GameClientView.obj
 0001:0000d980       ?OnHideChatMessage@CGameClientView@@QAEXXZ 0040e980 f   GameClientView.obj
 0001:0000da00       ??_GCBrush@@UAEPAXI@Z      0040ea00 f i GameClientView.obj
 0001:0000da00       ??_ECBrush@@UAEPAXI@Z      0040ea00 f i GameClientView.obj
 0001:0000da20       ??_GCGameClientView@@UAEPAXI@Z 0040ea20 f i GameClientView.obj
 0001:0000da20       ??_ECGameClientView@@UAEPAXI@Z 0040ea20 f i GameClientView.obj
 0001:0000da40       ?OnBnClickedEnter@CGameClientView@@QAEXXZ 0040ea40 f   GameClientView.obj
 0001:0000db70       ?OnCommand@CGameClientView@@UAEHIJ@Z 0040eb70 f   GameClientView.obj
 0001:0000dd70       ?PreTranslateMessage@CGameClientView@@UAEHPAUtagMSG@@@Z 0040ed70 f   GameClientView.obj
 0001:0000de20       _IsEqualGUID               0040ee20 f i GameFrameWindow.obj
 0001:0000de40       _==                        0040ee40 f i GameFrameWindow.obj
 0001:0000de60       ?GetThisMessageMap@CGameFrameWindow@@KGPBUAFX_MSGMAP@@XZ 0040ee60 f   GameFrameWindow.obj
 0001:0000de70       ?GetMessageMap@CGameFrameWindow@@MBEPBUAFX_MSGMAP@@XZ 0040ee70 f   GameFrameWindow.obj
 0001:0000de80       ??0IUnknownEx@@QAE@XZ      0040ee80 f i GameFrameWindow.obj
 0001:0000de90       ??1CGameFrameWindow@@UAE@XZ 0040ee90 f   GameFrameWindow.obj
 0001:0000df80       ?Release@CGameFrameWindow@@UAEXXZ 0040ef80 f i GameFrameWindow.obj
 0001:0000df90       ?PreTranslateMessage@CGameFrameWindow@@MAEHPAUtagMSG@@@Z 0040ef90 f   GameFrameWindow.obj
 0001:0000dfa0       ?OnEventUserEnter@CGameFrameWindow@@UAEXPAUIClientUserItem@@_N@Z 0040efa0 f   GameFrameWindow.obj
 0001:0000dfb0       ?OnEventUserLeave@CGameFrameWindow@@UAEXPAUIClientUserItem@@_N@Z 0040efb0 f   GameFrameWindow.obj
 0001:0000dfc0       ?OnEventUserScore@CGameFrameWindow@@UAEXPAUIClientUserItem@@_N@Z 0040efc0 f   GameFrameWindow.obj
 0001:0000dfd0       ?OnEventUserStatus@CGameFrameWindow@@UAEXPAUIClientUserItem@@_N@Z 0040efd0 f   GameFrameWindow.obj
 0001:0000dfe0       ?OnEventCustomFace@CGameFrameWindow@@UAEXPAUIClientUserItem@@_N@Z 0040efe0 f   GameFrameWindow.obj
 0001:0000dff0       ?OnEventUserAttrib@CGameFrameWindow@@UAEXPAUIClientUserItem@@_N@Z 0040eff0 f   GameFrameWindow.obj
 0001:0000e000       ?OnEraseBkgnd@CGameFrameWindow@@IAEHPAVCDC@@@Z 0040f000 f   GameFrameWindow.obj
 0001:0000e010       ?OnSettingChange@CGameFrameWindow@@IAEXIPB_W@Z 0040f010 f   GameFrameWindow.obj
 0001:0000e020       ?ShowGameRule@CGameFrameWindow@@UAE_NXZ 0040f020 f   GameFrameWindow.obj
 0001:0000e030       ?MaxSizeWindow@CGameFrameWindow@@UAE_NXZ 0040f030 f   GameFrameWindow.obj
 0001:0000e040       ?RestoreWindow@CGameFrameWindow@@UAE_NXZ 0040f040 f   GameFrameWindow.obj
 0001:0000e050       ?AllowGameSound@CGameFrameWindow@@UAE_N_N@Z 0040f050 f   GameFrameWindow.obj
 0001:0000e060       ?AllowGameLookon@CGameFrameWindow@@UAE_NK_N@Z 0040f060 f   GameFrameWindow.obj
 0001:0000e070       ?OnGameOptionChange@CGameFrameWindow@@UAE_NXZ 0040f070 f   GameFrameWindow.obj
 0001:0000e080       ?Release@CGameFrameWindow@@W3AEXXZ 0040f080 f i GameFrameWindow.obj
 0001:0000e090       ?AfxSetResourceHandle@@YGXPAUHINSTANCE__@@@Z 0040f090 f i GameFrameWindow.obj
 0001:0000e0a0       ??BCGdiObject@@QBEPAXXZ    0040f0a0 f i GameFrameWindow.obj
 0001:0000e0b0       ?SelectObject@CDC@@QAEPAXPAX@Z 0040f0b0 f i GameFrameWindow.obj
 0001:0000e0d0       ?DrawTextW@CDC@@QAEHABV?$CStringT@_WV?$StrTraitMFC_DLL@_WV?$ChTraitsCRT@_W@ATL@@@@@ATL@@PAUtagRECT@@I@Z 0040f0d0 f i GameFrameWindow.obj
 0001:0000e110       ?IsIconic@CWnd@@QBEHXZ     0040f110 f i GameFrameWindow.obj
 0001:0000e120       ?OnNcHitTest@CWnd@@IAEIVCPoint@@@Z 0040f120 f i GameFrameWindow.obj
 0001:0000e130       ?OnNcPaint@CWnd@@IAEXXZ    0040f130 f i GameFrameWindow.obj
 0001:0000e140       ?OnLButtonDown@CWnd@@IAEXIVCPoint@@@Z 0040f140 f i GameFrameWindow.obj
 0001:0000e150       ??_ECGameFrameWindow@@UAEPAXI@Z 0040f150 f i GameFrameWindow.obj
 0001:0000e150       ??_GCGameFrameWindow@@UAEPAXI@Z 0040f150 f i GameFrameWindow.obj
 0001:0000e170       ??0IGameFrameWnd@@QAE@XZ   0040f170 f i GameFrameWindow.obj
 0001:0000e180       ??0IUserEventSink@@QAE@XZ  0040f180 f i GameFrameWindow.obj
 0001:0000e190       ?QueryInterface@CGameFrameWindow@@UAEPAXABU_GUID@@K@Z 0040f190 f   GameFrameWindow.obj
 0001:0000e250       ?OnCommand@CGameFrameWindow@@MAEHIJ@Z 0040f250 f   GameFrameWindow.obj
 0001:0000e4b0       ?RectifyControl@CGameFrameWindow@@IAEXHH@Z 0040f4b0 f   GameFrameWindow.obj
 0001:0000e640       ?OnSize@CGameFrameWindow@@IAEXIHH@Z 0040f640 f   GameFrameWindow.obj
 0001:0000e670       ?OnCreate@CGameFrameWindow@@IAEHPAUtagCREATESTRUCTW@@@Z 0040f670 f   GameFrameWindow.obj
 0001:0000e990       ?OnLButtonDown@CGameFrameWindow@@IAEXIVCPoint@@@Z 0040f990 f   GameFrameWindow.obj
 0001:0000e9d0       ?OnLButtonDblClk@CGameFrameWindow@@IAEXIVCPoint@@@Z 0040f9d0 f   GameFrameWindow.obj
 0001:0000e9e0       ?OnSetTextMesage@CGameFrameWindow@@IAEJIJ@Z 0040f9e0 f   GameFrameWindow.obj
 0001:0000ea20       ?ReSetDlgSize@CGameFrameWindow@@IAEXHH@Z 0040fa20 f   GameFrameWindow.obj
 0001:0000eab0       ?OnNcHitTest@CGameFrameWindow@@IAEIVCPoint@@@Z 0040fab0 f   GameFrameWindow.obj
 0001:0000eac0       ?OnNcPaint@CGameFrameWindow@@QAEXXZ 0040fac0 f   GameFrameWindow.obj
 0001:0000ead0       ?OnPaint@CGameFrameWindow@@QAEXXZ 0040fad0 f   GameFrameWindow.obj
 0001:0000ece0       ?QueryInterface@CGameFrameWindow@@W3AEPAXABU_GUID@@K@Z 0040fce0 f i GameFrameWindow.obj
 0001:0000ecf0       ??0CGameFrameWindow@@QAE@XZ 0040fcf0 f   GameFrameWindow.obj
 0001:0000eea0       ?GetCardColor@CGameLogic@@QAEEE@Z 0040fea0 f i GameLogic.obj
 0001:0000eeb0       ??0CGameLogic@@QAE@XZ      0040feb0 f   GameLogic.obj
 0001:0000eec0       ??1CGameLogic@@UAE@XZ      0040fec0 f   GameLogic.obj
 0001:0000eed0       ?RandCardList@CGameLogic@@QAEXQAEE@Z 0040fed0 f   GameLogic.obj
 0001:0000ef50       ?RemoveCardList@CGameLogic@@QAE_NQBEEQAEE@Z 0040ff50 f   GameLogic.obj
 0001:0000f040       ?RemoveCard@CGameLogic@@QAE_NQBEEQAEE@Z 00410040 f   GameLogic.obj
 0001:0000f130       ?GetCardLogicValue@CGameLogic@@QAEEE@Z 00410130 f   GameLogic.obj
 0001:0000f160       ?MakeCardData@CGameLogic@@QAEEEE@Z 00410160 f   GameLogic.obj
 0001:0000f180       ?AnalysebCardData@CGameLogic@@QAEXQBEEAAUtagAnalyseResult@@@Z 00410180 f   GameLogic.obj
 0001:0000f260       ?AnalysebDistributing@CGameLogic@@QAEXQBEEAAUtagDistributing@@@Z 00410260 f   GameLogic.obj
 0001:0000f2c0       ??_ECGameLogic@@UAEPAXI@Z  004102c0 f i GameLogic.obj
 0001:0000f2c0       ??_GCGameLogic@@UAEPAXI@Z  004102c0 f i GameLogic.obj
 0001:0000f2e0       ?GetCardType@CGameLogic@@QAEEQBEE@Z 004102e0 f   GameLogic.obj
 0001:0000f620       ?SortCardList@CGameLogic@@QAEXQAEEE@Z 00410620 f   GameLogic.obj
 0001:0000f790       ?SortOutCardList@CGameLogic@@QAEXQAEE@Z 00410790 f   GameLogic.obj
 0001:0000f960       ?CompareCard@CGameLogic@@QAE_NQBE0EE@Z 00410960 f   GameLogic.obj
 0001:0000fae0       ?SearchSameCard@CGameLogic@@QAEEQBEEEEPAUtagSearchCardResult@@@Z 00410ae0 f   GameLogic.obj
 0001:0000fcb0       ?SearchTakeCardType@CGameLogic@@QAEEQBEEEEEPAUtagSearchCardResult@@@Z 00410cb0 f   GameLogic.obj
 0001:0000ff80       ?SearchLineCardType@CGameLogic@@QAEEQBEEEEEPAUtagSearchCardResult@@@Z 00410f80 f   GameLogic.obj
 0001:000103e0       ?SearchThreeTwoLine@CGameLogic@@QAEEQBEEPAUtagSearchCardResult@@@Z 004113e0 f   GameLogic.obj
 0001:00010a80       ?SearchOutCard@CGameLogic@@QAEEQBEE0EPAUtagSearchCardResult@@@Z 00411a80 f   GameLogic.obj
 0001:00011af0       ??0CHistoryCard@@QAE@XZ    00412af0 f   HistoryRecord.obj
 0001:00011b20       ??1CHistoryCard@@UAE@XZ    00412b20 f   HistoryRecord.obj
 0001:00011b30       ?ResetData@CHistoryCard@@QAEXXZ 00412b30 f   HistoryRecord.obj
 0001:00011b60       ?GetCurrentEvent@CHistoryCard@@QAEEG@Z 00412b60 f   HistoryRecord.obj
 0001:00011b80       ?GetHistoryEvent@CHistoryCard@@QAEEG@Z 00412b80 f   HistoryRecord.obj
 0001:00011ba0       ?GetCurrentCard@CHistoryCard@@QAEEGQAEE@Z 00412ba0 f   HistoryRecord.obj
 0001:00011bf0       ?GetHistoryCard@CHistoryCard@@QAEEGQAEE@Z 00412bf0 f   HistoryRecord.obj
 0001:00011c40       ?OnEventUserPass@CHistoryCard@@QAEXG@Z 00412c40 f   HistoryRecord.obj
 0001:00011ca0       ?OnEventUserOutCard@CHistoryCard@@QAEXGQAEE@Z 00412ca0 f   HistoryRecord.obj
 0001:00011d20       ??0CHistoryScore@@QAE@XZ   00412d20 f   HistoryRecord.obj
 0001:00011d40       ??1CHistoryScore@@UAE@XZ   00412d40 f   HistoryRecord.obj
 0001:00011d50       ?ResetData@CHistoryScore@@QAEXXZ 00412d50 f   HistoryRecord.obj
 0001:00011d70       ?GetHistoryScore@CHistoryScore@@QAEPAUtagHistoryScore@@G@Z 00412d70 f   HistoryRecord.obj
 0001:00011d90       ?OnEventUserEnter@CHistoryScore@@QAEXG@Z 00412d90 f   HistoryRecord.obj
 0001:00011dc0       ?OnEventUserLeave@CHistoryScore@@QAEXG@Z 00412dc0 f   HistoryRecord.obj
 0001:00011df0       ?OnEventUserScore@CHistoryScore@@QAEXG_J@Z 00412df0 f   HistoryRecord.obj
 0001:00011e30       ??_ECHistoryCard@@UAEPAXI@Z 00412e30 f i HistoryRecord.obj
 0001:00011e30       ??_GCHistoryCard@@UAEPAXI@Z 00412e30 f i HistoryRecord.obj
 0001:00011e50       ?OnEventSaveData@CHistoryCard@@QAEXG@Z 00412e50 f   HistoryRecord.obj
 0001:00011f00       ??_ECHistoryScore@@UAEPAXI@Z 00412f00 f i HistoryRecord.obj
 0001:00011f00       ??_GCHistoryScore@@UAEPAXI@Z 00412f00 f i HistoryRecord.obj
 0001:00011f20       ??1CScoreControl@@UAE@XZ   00412f20 f   ScoreControl.obj
 0001:00011ff0       ?OnWindowMovie@CScoreControl@@MAEXXZ 00412ff0 f   ScoreControl.obj
 0001:00012000       ?OnWindowDestory@CScoreControl@@MAEXPAVCD3DDevice@@@Z 00413000 f   ScoreControl.obj
 0001:00012070       ?OnEventMouse@CScoreControl@@MAEXIIHH@Z 00413070 f   ScoreControl.obj
 0001:00012080       ?CloseControl@CScoreControl@@QAEXXZ 00413080 f   ScoreControl.obj
 0001:000120b0       ?SetScoreInfo@CScoreControl@@QAEXAAUtagScoreInfo@@@Z 004130b0 f   ScoreControl.obj
 0001:000120d0       ?DrawNumber@CScoreControl@@QAEXPAVCD3DDevice@@PAVCD3DTexture@@PA_W_JHHI@Z 004130d0 f   ScoreControl.obj
 0001:00012270       ??0CScoreControl@@QAE@XZ   00413270 f   ScoreControl.obj
 0001:00012350       ??_ECScoreControl@@UAEPAXI@Z 00413350 f i ScoreControl.obj
 0001:00012350       ??_GCScoreControl@@UAEPAXI@Z 00413350 f i ScoreControl.obj
 0001:00012370       ?OnWindowCreate@CScoreControl@@MAEXPAVCD3DDevice@@@Z 00413370 f   ScoreControl.obj
 0001:000124b0       ?OnEventButton@CScoreControl@@MAEXIIHH@Z 004134b0 f   ScoreControl.obj
 0001:00012510       ?OnEventDrawWindow@CScoreControl@@MAEXPAVCD3DDevice@@HH@Z 00413510 f   ScoreControl.obj
 0001:00012960       ??0CSkinButtonEx@@QAE@XZ   00413960 f   SkinButtonEx.obj
 0001:00012980       ??1CSkinButtonEx@@UAE@XZ   00413980 f   SkinButtonEx.obj
 0001:00012990       ?PreSubclassWindow@CSkinButtonEx@@MAEXXZ 00413990 f   SkinButtonEx.obj
 0001:000129a0       ??0CBitmap@@QAE@XZ         004139a0 f i SkinButtonEx.obj
 0001:000129b0       ??1CBitmap@@UAE@XZ         004139b0 f i SkinButtonEx.obj
 0001:000129c0       ?LoadBitmapW@CBitmap@@QAEHPB_W@Z 004139c0 f i SkinButtonEx.obj
 0001:000129f0       ?GetSafeHdc@CDC@@QBEPAUHDC__@@XZ 004139f0 f i SkinButtonEx.obj
 0001:00012a00       ?CreateCompatibleDC@CDC@@QAEHPAV1@@Z 00413a00 f i SkinButtonEx.obj
 0001:00012a40       ?SelectObject@CDC@@QAEPAVCBitmap@@PAV2@@Z 00413a40 f i SkinButtonEx.obj
 0001:00012a70       ?TransparentBlt@CDC@@QAEHHHHHPAV1@HHHHI@Z 00413a70 f i SkinButtonEx.obj
 0001:00012ac0       ?GetHeight@CImage@ATL@@QBEHXZ 00413ac0 f i SkinButtonEx.obj
 0001:00012ad0       ?GetWidth@CImage@ATL@@QBEHXZ 00413ad0 f i SkinButtonEx.obj
 0001:00012ae0       ?IsNull@CImage@ATL@@QBE_NXZ 00413ae0 f i SkinButtonEx.obj
 0001:00012af0       ??_ECSkinButtonEx@@UAEPAXI@Z 00413af0 f i SkinButtonEx.obj
 0001:00012af0       ??_GCSkinButtonEx@@UAEPAXI@Z 00413af0 f i SkinButtonEx.obj
 0001:00012b10       ?DrawItem@CSkinButtonEx@@MAEXPAUtagDRAWITEMSTRUCT@@@Z 00413b10 f   SkinButtonEx.obj
 0001:00012d00       ??_ECBitmap@@UAEPAXI@Z     00413d00 f i SkinButtonEx.obj
 0001:00012d00       ??_GCBitmap@@UAEPAXI@Z     00413d00 f i SkinButtonEx.obj
 0001:00012d20       ??1CSkinHorizontalScrollbar@@UAE@XZ 00413d20 f   SkinHorizontalScrollbar.obj
 0001:00012d30       ?GetThisMessageMap@CSkinHorizontalScrollbar@@KGPBUAFX_MSGMAP@@XZ 00413d30 f   SkinHorizontalScrollbar.obj
 0001:00012d40       ?GetMessageMap@CSkinHorizontalScrollbar@@MBEPBUAFX_MSGMAP@@XZ 00413d40 f   SkinHorizontalScrollbar.obj
 0001:00012d50       ?PtInRect@CRect@@QBEHUtagPOINT@@@Z 00413d50 f i SkinHorizontalScrollbar.obj
 0001:00012d70       ?LoadBitmapW@CBitmap@@QAEHI@Z 00413d70 f i SkinHorizontalScrollbar.obj
 0001:00012da0       ?CreateCompatibleBitmap@CBitmap@@QAEHPAVCDC@@HH@Z 00413da0 f i SkinHorizontalScrollbar.obj
 0001:00012dd0       ?BitBlt@CDC@@QAEHHHHHPAV1@HHK@Z 00413dd0 f i SkinHorizontalScrollbar.obj
 0001:00012e10       ?StretchBlt@CDC@@QAEHHHHHPAV1@HHHHK@Z 00413e10 f i SkinHorizontalScrollbar.obj
 0001:00012e60       ??0CStatic@@QAE@XZ         00413e60 f i SkinHorizontalScrollbar.obj
 0001:00012e80       ??_GCStatic@@UAEPAXI@Z     00413e80 f i SkinHorizontalScrollbar.obj
 0001:00012e80       ??_ECStatic@@UAEPAXI@Z     00413e80 f i SkinHorizontalScrollbar.obj
 0001:00012ea0       ?Scroll@CListCtrl@@QAEHVCSize@@@Z 00413ea0 f i SkinHorizontalScrollbar.obj
 0001:00012ec0       ??0CMemDC@@QAE@PAVCDC@@ABVCRect@@@Z 00413ec0 f i SkinHorizontalScrollbar.obj
 0001:00012fa0       ?PtVisible@CDC@@UBEHHH@Z   00413fa0 f i SkinHorizontalScrollbar.obj
 0001:00012fc0       ?RectVisible@CDC@@UBEHPBUtagRECT@@@Z 00413fc0 f i SkinHorizontalScrollbar.obj
 0001:00012fe0       ?TextOutW@CDC@@UAEHHHPB_WH@Z 00413fe0 f i SkinHorizontalScrollbar.obj
 0001:00013010       ?ExtTextOutW@CDC@@UAEHHHIPBUtagRECT@@PB_WIPAH@Z 00414010 f i SkinHorizontalScrollbar.obj
 0001:00013040       ?TabbedTextOutW@CDC@@UAE?AVCSize@@HHPB_WHHPAHH@Z 00414040 f i SkinHorizontalScrollbar.obj
 0001:00013090       ?DrawTextW@CDC@@UAEHPB_WHPAUtagRECT@@I@Z 00414090 f i SkinHorizontalScrollbar.obj
 0001:000130c0       ?DrawTextExW@CDC@@UAEHPA_WHPAUtagRECT@@IPAUtagDRAWTEXTPARAMS@@@Z 004140c0 f i SkinHorizontalScrollbar.obj
 0001:000130f0       ?GrayStringW@CDC@@UAEHPAVCBrush@@P6GHPAUHDC__@@JH@ZJHHHHH@Z 004140f0 f i SkinHorizontalScrollbar.obj
 0001:00013130       ?Escape@CDC@@UAEHHHPBDPAX@Z 00414130 f i SkinHorizontalScrollbar.obj
 0001:00013160       ??1CMemDC@@UAE@XZ          00414160 f i SkinHorizontalScrollbar.obj
 0001:00013210       ??_GCMemDC@@UAEPAXI@Z      00414210 f i SkinHorizontalScrollbar.obj
 0001:00013210       ??_ECMemDC@@UAEPAXI@Z      00414210 f i SkinHorizontalScrollbar.obj
 0001:00013230       ??0CSkinHorizontalScrollbar@@QAE@XZ 00414230 f   SkinHorizontalScrollbar.obj
 0001:00013270       ??_ECSkinHorizontalScrollbar@@UAEPAXI@Z 00414270 f i SkinHorizontalScrollbar.obj
 0001:00013270       ??_GCSkinHorizontalScrollbar@@UAEPAXI@Z 00414270 f i SkinHorizontalScrollbar.obj
 0001:00013290       ?GetScrollBarLength@CSkinHorizontalScrollbar@@AAEHXZ 00414290 f   SkinHorizontalScrollbar.obj
 0001:00013300       ?OnLButtonDown@CSkinHorizontalScrollbar@@IAEXIVCPoint@@@Z 00414300 f   SkinHorizontalScrollbar.obj
 0001:00013400       ?Draw@CSkinHorizontalScrollbar@@AAEXXZ 00414400 f   SkinHorizontalScrollbar.obj
 0001:00013660       ?LimitThumbPosition@CSkinHorizontalScrollbar@@AAEXXZ 00414660 f   SkinHorizontalScrollbar.obj
 0001:000136c0       ?OnPaint@CSkinHorizontalScrollbar@@IAEXXZ 004146c0 f   SkinHorizontalScrollbar.obj
 0001:00013730       ?OnMouseMove@CSkinHorizontalScrollbar@@IAEXIVCPoint@@@Z 00414730 f   SkinHorizontalScrollbar.obj
 0001:00013810       ?UpdateThumbPosition@CSkinHorizontalScrollbar@@QAEXXZ 00414810 f   SkinHorizontalScrollbar.obj
 0001:000138a0       ?PageRight@CSkinHorizontalScrollbar@@AAEXXZ 004148a0 f   SkinHorizontalScrollbar.obj
 0001:000138d0       ?PageLeft@CSkinHorizontalScrollbar@@AAEXXZ 004148d0 f   SkinHorizontalScrollbar.obj
 0001:00013900       ?ScrollLeft@CSkinHorizontalScrollbar@@AAEXXZ 00414900 f   SkinHorizontalScrollbar.obj
 0001:00013930       ?ScrollRight@CSkinHorizontalScrollbar@@AAEXXZ 00414930 f   SkinHorizontalScrollbar.obj
 0001:00013960       ?OnLButtonUp@CSkinHorizontalScrollbar@@IAEXIVCPoint@@@Z 00414960 f   SkinHorizontalScrollbar.obj
 0001:00013ac0       ?OnTimer@CSkinHorizontalScrollbar@@IAEXI@Z 00414ac0 f   SkinHorizontalScrollbar.obj
 0001:00013b80       ??1CSkinVerticleScrollbar@@UAE@XZ 00414b80 f   SkinVerticleScrollbar.obj
 0001:00013b90       ?GetThisMessageMap@CSkinVerticleScrollbar@@KGPBUAFX_MSGMAP@@XZ 00414b90 f   SkinVerticleScrollbar.obj
 0001:00013ba0       ?GetMessageMap@CSkinVerticleScrollbar@@MBEPBUAFX_MSGMAP@@XZ 00414ba0 f   SkinVerticleScrollbar.obj
 0001:00013bb0       ?OnTimer@CSkinVerticleScrollbar@@IAEXI@Z 00414bb0 f   SkinVerticleScrollbar.obj
 0001:00013bc0       ?OnEraseBkgnd@CWnd@@IAEHPAVCDC@@@Z 00414bc0 f i SkinVerticleScrollbar.obj
 0001:00013bd0       ?GetLineCount@CEdit@@QBEHXZ 00414bd0 f i SkinVerticleScrollbar.obj
 0001:00013bf0       ?LineScroll@CEdit@@QAEXHH@Z 00414bf0 f i SkinVerticleScrollbar.obj
 0001:00013c10       ?GetFirstVisibleLine@CEdit@@QBEHXZ 00414c10 f i SkinVerticleScrollbar.obj
 0001:00013c30       ??0CSkinVerticleScrollbar@@QAE@XZ 00414c30 f   SkinVerticleScrollbar.obj
 0001:00013c70       ??_ECSkinVerticleScrollbar@@UAEPAXI@Z 00414c70 f i SkinVerticleScrollbar.obj
 0001:00013c70       ??_GCSkinVerticleScrollbar@@UAEPAXI@Z 00414c70 f i SkinVerticleScrollbar.obj
 0001:00013c90       ?OnEraseBkgnd@CSkinVerticleScrollbar@@IAEHPAVCDC@@@Z 00414c90 f   SkinVerticleScrollbar.obj
 0001:00013ca0       ?OnLButtonDown@CSkinVerticleScrollbar@@IAEXIVCPoint@@@Z 00414ca0 f   SkinVerticleScrollbar.obj
 0001:00013d70       ?GetScrollBarLength@CSkinVerticleScrollbar@@AAEHXZ 00414d70 f   SkinVerticleScrollbar.obj
 0001:00013d90       ?Draw@CSkinVerticleScrollbar@@AAEXXZ 00414d90 f   SkinVerticleScrollbar.obj
 0001:00014000       ?LimitThumbPosition@CSkinVerticleScrollbar@@AAEXXZ 00415000 f   SkinVerticleScrollbar.obj
 0001:00014070       ?OnMouseMove@CSkinVerticleScrollbar@@IAEXIVCPoint@@@Z 00415070 f   SkinVerticleScrollbar.obj
 0001:00014160       ?OnPaint@CSkinVerticleScrollbar@@IAEXXZ 00415160 f   SkinVerticleScrollbar.obj
 0001:000141d0       ?UpdateThumbPosition@CSkinVerticleScrollbar@@QAEXXZ 004151d0 f   SkinVerticleScrollbar.obj
 0001:00014280       ?PageDown@CSkinVerticleScrollbar@@QAEXXZ 00415280 f   SkinVerticleScrollbar.obj
 0001:000142c0       ?PageUp@CSkinVerticleScrollbar@@QAEXXZ 004152c0 f   SkinVerticleScrollbar.obj
 0001:00014300       ?ScrollUp@CSkinVerticleScrollbar@@AAEXXZ 00415300 f   SkinVerticleScrollbar.obj
 0001:00014340       ?ScrollDown@CSkinVerticleScrollbar@@AAEXXZ 00415340 f   SkinVerticleScrollbar.obj
 0001:00014380       ?OnLButtonUp@CSkinVerticleScrollbar@@IAEXIVCPoint@@@Z 00415380 f   SkinVerticleScrollbar.obj
 0001:00014490       ?InterlockedExchangePointer@@YGPAXPAPAXPAX@Z 00415490 f i Stdafx.obj
 0001:000144a0       ?_AtlGetThreadACPFake@ATL@@YGIXZ 004154a0 f i Stdafx.obj
 0001:00014520       ?_AtlGetThreadACPReal@ATL@@YGIXZ 00415520 f i Stdafx.obj
 0001:00014530       ?_AtlGetThreadACPThunk@ATL@@YGIXZ 00415530 f i Stdafx.obj
 0001:000145a0       ?_AtlRaiseException@ATL@@YAXKK@Z 004155a0 f i Stdafx.obj
 0001:000145c0       ??0CComCriticalSection@ATL@@QAE@XZ 004155c0 f i Stdafx.obj
 0001:000145e0       ?Init@CComCriticalSection@ATL@@QAEJXZ 004155e0 f i Stdafx.obj
 0001:00014660       ?Term@CComCriticalSection@ATL@@QAEJXZ 00415660 f i Stdafx.obj
 0001:00014670       ?GetModuleInstance@CAtlBaseModule@ATL@@QAEPAUHINSTANCE__@@XZ 00415670 f i Stdafx.obj
 0001:00014680       ?AtlWinModuleInit@ATL@@YGJPAU_ATL_WIN_MODULE70@1@@Z 00415680 f i Stdafx.obj
 0001:000146b0       ??0?$CSimpleArray@GV?$CSimpleArrayEqualHelper@G@ATL@@@ATL@@QAE@XZ 004156b0 f i Stdafx.obj
 0001:000146c0       ?GetSize@?$CSimpleArray@GV?$CSimpleArrayEqualHelper@G@ATL@@@ATL@@QBEHXZ 004156c0 f i Stdafx.obj
 0001:000146d0       ?RemoveAll@?$CSimpleArray@GV?$CSimpleArrayEqualHelper@G@ATL@@@ATL@@QAEXXZ 004156d0 f i Stdafx.obj
 0001:00014700       ??A?$CSimpleArray@GV?$CSimpleArrayEqualHelper@G@ATL@@@ATL@@QAEAAGH@Z 00415700 f i Stdafx.obj
 0001:00014730       ??Bsentry@?$basic_istream@DU?$char_traits@D@std@@@std@@QBE_NXZ 00415730 f i Stdafx.obj
 0001:00014740       ??1_Sentry_base@?$basic_istream@DU?$char_traits@D@std@@@std@@QAE@XZ 00415740 f i Stdafx.obj
 0001:00014770       ??Bsentry@?$basic_istream@_WU?$char_traits@_W@std@@@std@@QBE_NXZ 00415770 f i Stdafx.obj
 0001:00014780       ??1_Sentry_base@?$basic_istream@_WU?$char_traits@_W@std@@@std@@QAE@XZ 00415780 f i Stdafx.obj
 0001:000147b0       ??0_Sentry_base@?$basic_istream@DU?$char_traits@D@std@@@std@@QAE@AAV12@@Z 004157b0 f i Stdafx.obj
 0001:000147f0       ??0_Sentry_base@?$basic_istream@_WU?$char_traits@_W@std@@@std@@QAE@AAV12@@Z 004157f0 f i Stdafx.obj
 0001:00014830       ??Bsentry@?$basic_ostream@DU?$char_traits@D@std@@@std@@QBE_NXZ 00415830 f i Stdafx.obj
 0001:00014840       ??Bsentry@?$basic_ostream@_WU?$char_traits@_W@std@@@std@@QBE_NXZ 00415840 f i Stdafx.obj
 0001:00014850       ??0_Sentry_base@?$basic_ostream@DU?$char_traits@D@std@@@std@@QAE@AAV12@@Z 00415850 f i Stdafx.obj
 0001:00014890       ??1_Sentry_base@?$basic_ostream@DU?$char_traits@D@std@@@std@@QAE@XZ 00415890 f i Stdafx.obj
 0001:000148c0       ??0_Sentry_base@?$basic_ostream@_WU?$char_traits@_W@std@@@std@@QAE@AAV12@@Z 004158c0 f i Stdafx.obj
 0001:00014900       ??1_Sentry_base@?$basic_ostream@_WU?$char_traits@_W@std@@@std@@QAE@XZ 00415900 f i Stdafx.obj
 0001:00014930       ??$use_facet@V?$ctype@D@std@@@std@@YAABV?$ctype@D@0@ABVlocale@0@@Z 00415930 f i Stdafx.obj
 0001:00014a00       ??$use_facet@V?$ctype@_W@std@@@std@@YAABV?$ctype@_W@0@ABVlocale@0@@Z 00415a00 f i Stdafx.obj
 0001:00014ad0       ??$?HDU?$char_traits@D@std@@V?$allocator@D@1@@std@@YA?AV?$basic_string@DU?$char_traits@D@std@@V?$allocator@D@2@@0@ABV10@0@Z 00415ad0 f i Stdafx.obj
 0001:00014b50       ??$?HDU?$char_traits@D@std@@V?$allocator@D@1@@std@@YA?AV?$basic_string@DU?$char_traits@D@std@@V?$allocator@D@2@@0@PBDABV10@@Z 00415b50 f i Stdafx.obj
 0001:00014bd0       ??$?HDU?$char_traits@D@std@@V?$allocator@D@1@@std@@YA?AV?$basic_string@DU?$char_traits@D@std@@V?$allocator@D@2@@0@DABV10@@Z 00415bd0 f i Stdafx.obj
 0001:00014c50       ??$?HDU?$char_traits@D@std@@V?$allocator@D@1@@std@@YA?AV?$basic_string@DU?$char_traits@D@std@@V?$allocator@D@2@@0@ABV10@PBD@Z 00415c50 f i Stdafx.obj
 0001:00014cd0       ??$?HDU?$char_traits@D@std@@V?$allocator@D@1@@std@@YA?AV?$basic_string@DU?$char_traits@D@std@@V?$allocator@D@2@@0@ABV10@D@Z 00415cd0 f i Stdafx.obj
 0001:00014d50       ??$?H_WU?$char_traits@_W@std@@V?$allocator@_W@1@@std@@YA?AV?$basic_string@_WU?$char_traits@_W@std@@V?$allocator@_W@2@@0@ABV10@0@Z 00415d50 f i Stdafx.obj
 0001:00014dd0       ??$?H_WU?$char_traits@_W@std@@V?$allocator@_W@1@@std@@YA?AV?$basic_string@_WU?$char_traits@_W@std@@V?$allocator@_W@2@@0@PB_WABV10@@Z 00415dd0 f i Stdafx.obj
 0001:00014e50       ??$?H_WU?$char_traits@_W@std@@V?$allocator@_W@1@@std@@YA?AV?$basic_string@_WU?$char_traits@_W@std@@V?$allocator@_W@2@@0@_WABV10@@Z 00415e50 f i Stdafx.obj
 0001:00014ed0       ??$?H_WU?$char_traits@_W@std@@V?$allocator@_W@1@@std@@YA?AV?$basic_string@_WU?$char_traits@_W@std@@V?$allocator@_W@2@@0@ABV10@PB_W@Z 00415ed0 f i Stdafx.obj
 0001:00014f50       ??$?H_WU?$char_traits@_W@std@@V?$allocator@_W@1@@std@@YA?AV?$basic_string@_WU?$char_traits@_W@std@@V?$allocator@_W@2@@0@ABV10@_W@Z 00415f50 f i Stdafx.obj
 0001:00014fd0       ?AtlWinModuleTerm@ATL@@YGJPAU_ATL_WIN_MODULE70@1@PAUHINSTANCE__@@@Z 00415fd0 f i Stdafx.obj
 0001:00015070       ??1sentry@?$basic_istream@DU?$char_traits@D@std@@@std@@QAE@XZ 00416070 f i Stdafx.obj
 0001:000150a0       ??1sentry@?$basic_istream@_WU?$char_traits@_W@std@@@std@@QAE@XZ 004160a0 f i Stdafx.obj
 0001:000150d0       ??1?$CSimpleArray@GV?$CSimpleArrayEqualHelper@G@ATL@@@ATL@@QAE@XZ 004160d0 f i Stdafx.obj
 0001:00015100       ??0sentry@?$basic_istream@DU?$char_traits@D@std@@@std@@QAE@AAV12@_N@Z 00416100 f i Stdafx.obj
 0001:00015180       ??0sentry@?$basic_istream@_WU?$char_traits@_W@std@@@std@@QAE@AAV12@_N@Z 00416180 f i Stdafx.obj
 0001:00015200       ??0sentry@?$basic_ostream@DU?$char_traits@D@std@@@std@@QAE@AAV12@@Z 00416200 f i Stdafx.obj
 0001:000152b0       ??1sentry@?$basic_ostream@DU?$char_traits@D@std@@@std@@QAE@XZ 004162b0 f i Stdafx.obj
 0001:00015330       ??0sentry@?$basic_ostream@_WU?$char_traits@_W@std@@@std@@QAE@AAV12@@Z 00416330 f i Stdafx.obj
 0001:000153e0       ??1sentry@?$basic_ostream@_WU?$char_traits@_W@std@@@std@@QAE@XZ 004163e0 f i Stdafx.obj
 0001:00015460       ??$?5DU?$char_traits@D@std@@V?$allocator@D@1@@std@@YAAAV?$basic_istream@DU?$char_traits@D@std@@@0@AAV10@AAV?$basic_string@DU?$char_traits@D@std@@V?$allocator@D@2@@0@@Z 00416460 f i Stdafx.obj
 0001:00015660       ??$getline@DU?$char_traits@D@std@@V?$allocator@D@2@@std@@YAAAV?$basic_istream@DU?$char_traits@D@std@@@0@AAV10@AAV?$basic_string@DU?$char_traits@D@std@@V?$allocator@D@2@@0@D@Z 00416660 f i Stdafx.obj
 0001:00015820       ??$?6DU?$char_traits@D@std@@V?$allocator@D@1@@std@@YAAAV?$basic_ostream@DU?$char_traits@D@std@@@0@AAV10@ABV?$basic_string@DU?$char_traits@D@std@@V?$allocator@D@2@@0@@Z 00416820 f i Stdafx.obj
 0001:00015a60       ??$?5_WU?$char_traits@_W@std@@V?$allocator@_W@1@@std@@YAAAV?$basic_istream@_WU?$char_traits@_W@std@@@0@AAV10@AAV?$basic_string@_WU?$char_traits@_W@std@@V?$allocator@_W@2@@0@@Z 00416a60 f i Stdafx.obj
 0001:00015c60       ??$getline@_WU?$char_traits@_W@std@@V?$allocator@_W@2@@std@@YAAAV?$basic_istream@_WU?$char_traits@_W@std@@@0@AAV10@AAV?$basic_string@_WU?$char_traits@_W@std@@V?$allocator@_W@2@@0@_W@Z 00416c60 f i Stdafx.obj
 0001:00015e20       ??$?6_WU?$char_traits@_W@std@@V?$allocator@_W@1@@std@@YAAAV?$basic_ostream@_WU?$char_traits@_W@std@@@0@AAV10@ABV?$basic_string@_WU?$char_traits@_W@std@@V?$allocator@_W@2@@0@@Z 00416e20 f i Stdafx.obj
 0001:00016060       ?Term@CAtlWinModule@ATL@@QAEXXZ 00417060 f i Stdafx.obj
 0001:00016070       ??0_ATL_WIN_MODULE70@ATL@@QAE@XZ 00417070 f i Stdafx.obj
 0001:000160a0       ??1_ATL_WIN_MODULE70@ATL@@QAE@XZ 004170a0 f i Stdafx.obj
 0001:000160d0       ??$getline@DU?$char_traits@D@std@@V?$allocator@D@2@@std@@YAAAV?$basic_istream@DU?$char_traits@D@std@@@0@AAV10@AAV?$basic_string@DU?$char_traits@D@std@@V?$allocator@D@2@@0@@Z 004170d0 f i Stdafx.obj
 0001:00016100       ??$getline@_WU?$char_traits@_W@std@@V?$allocator@_W@2@@std@@YAAAV?$basic_istream@_WU?$char_traits@_W@std@@@0@AAV10@AAV?$basic_string@_WU?$char_traits@_W@std@@V?$allocator@_W@2@@0@@Z 00417100 f i Stdafx.obj
 0001:00016130       ??0CAtlWinModule@ATL@@QAE@XZ 00417130 f i Stdafx.obj
 0001:00016180       ??1CAtlWinModule@ATL@@QAE@XZ 00417180 f i Stdafx.obj
 0001:000161b0       ??1CStringMessage@@QAE@XZ  004171b0 f   StringMessage.obj
 0001:000161c0       ??_GCStringMessage@@QAEPAXI@Z 004171c0 f i StringMessage.obj
 0001:000161e0       ?InsertCustomString@CStringMessage@@UAE_NPB_WKK@Z 004171e0 f   StringMessage.obj
 0001:000161f0       ?InsertExpression@CStringMessage@@UAE_NPB_W0@Z 004171f0 f   StringMessage.obj
 0001:00016200       ?InsertExpression@CStringMessage@@UAE_NPB_W0_N@Z 00417200 f   StringMessage.obj
 0001:00016210       ?InsertExpression@CStringMessage@@UAE_NPB_W00@Z 00417210 f   StringMessage.obj
 0001:00016220       ?SendMessageToEngine@CStringMessage@@AAEXV?$CStringT@_WV?$StrTraitMFC_DLL@_WV?$ChTraitsCRT@_W@ATL@@@@@ATL@@H@Z 00417220 f   StringMessage.obj
 0001:00016290       ??0IStringMessage@@QAE@XZ  00417290 f i StringMessage.obj
 0001:000162a0       ?Release@CStringMessage@@UAEXXZ 004172a0 f   StringMessage.obj
 0001:000162c0       ?QueryInterface@CStringMessage@@UAEPAXABU_GUID@@K@Z 004172c0 f   StringMessage.obj
 0001:00016340       ?InsertUserEnter@CStringMessage@@UAE_NPB_W@Z 00417340 f   StringMessage.obj
 0001:000163d0       ?InsertUserLeave@CStringMessage@@UAE_NPB_W@Z 004173d0 f   StringMessage.obj
 0001:00016460       ?InsertUserOffLine@CStringMessage@@UAE_NPB_W@Z 00417460 f   StringMessage.obj
 0001:000164f0       ?InsertNormalString@CStringMessage@@UAE_NPB_W@Z 004174f0 f   StringMessage.obj
 0001:00016570       ?InsertSystemString@CStringMessage@@UAE_NPB_W@Z 00417570 f   StringMessage.obj
 0001:000165f0       ?InsertPromptString@CStringMessage@@UAE_NPB_W@Z 004175f0 f   StringMessage.obj
 0001:00016670       ?InsertAfficheString@CStringMessage@@UAE_NPB_W@Z 00417670 f   StringMessage.obj
 0001:000166f0       ?InsertCustomString@CStringMessage@@UAE_NPB_WK@Z 004176f0 f   StringMessage.obj
 0001:00016770       ?InsertUserChat@CStringMessage@@UAE_NPB_W0K@Z 00417770 f   StringMessage.obj
 0001:00016800       ?InsertUserChat@CStringMessage@@UAE_NPB_W00K@Z 00417800 f   StringMessage.obj
 0001:00016880       ?InsertWhisperChat@CStringMessage@@UAE_NPB_W0K_N@Z 00417880 f   StringMessage.obj
 0001:00016900       ?InsertUserTrumpet@CStringMessage@@UAE_NPB_W0K@Z 00417900 f   StringMessage.obj
 0001:00016980       ?InsertUserTyphon@CStringMessage@@UAE_NPB_W0K@Z 00417980 f   StringMessage.obj
 0001:00016a00       ??0CStringMessage@@QAE@XZ  00417a00 f   StringMessage.obj
 0001:00016a0a       ?AfxGetModuleState@@YGPAVAFX_MODULE_STATE@@XZ 00417a0a f   mfc71u:MFC71U.DLL
 0001:00016a10       ??3@YAXPAX@Z               00417a10 f   mfc71u:MFC71U.DLL
 0001:00016a16       ?GetThisMessageMap@CWnd@@KGPBUAFX_MSGMAP@@XZ 00417a16 f   mfc71u:MFC71U.DLL
 0001:00016a1c       ?ShowWindow@CWnd@@QAEHH@Z  00417a1c f   mfc71u:MFC71U.DLL
 0001:00016a22       ?PreSubclassWindow@CWnd@@UAEXXZ 00417a22 f   mfc71u:MFC71U.DLL
 0001:00016a28       ?OnVScroll@CWnd@@IAEXIIPAVCScrollBar@@@Z 00417a28 f   mfc71u:MFC71U.DLL
 0001:00016a2e       ?GetRuntimeClass@CGdiObject@@UBEPAUCRuntimeClass@@XZ 00417a2e f   mfc71u:MFC71U.DLL
 0001:00016a34       ?DeleteObject@CGdiObject@@QAEHXZ 00417a34 f   mfc71u:MFC71U.DLL
 0001:00016a3a       ?GetRuntimeClass@CFont@@UBEPAUCRuntimeClass@@XZ 00417a3a f   mfc71u:MFC71U.DLL
 0001:00016a40       ?Attach@CGdiObject@@QAEHPAX@Z 00417a40 f   mfc71u:MFC71U.DLL
 0001:00016a46       ?FromHandle@CWnd@@SGPAV1@PAUHWND__@@@Z 00417a46 f   mfc71u:MFC71U.DLL
 0001:00016a4c       ?Default@CWnd@@IAEJXZ      00417a4c f   mfc71u:MFC71U.DLL
 0001:00016a52       ?CreateEx@CRichEditCtrl@@UAEHKKABUtagRECT@@PAVCWnd@@I@Z 00417a52 f   mfc71u:MFC71U.DLL
 0001:00016a58       ?Create@CRichEditCtrl@@UAEHKABUtagRECT@@PAVCWnd@@I@Z 00417a58 f   mfc71u:MFC71U.DLL
 0001:00016a5e       ?SetOccDialogInfo@CWnd@@MAEHPAU_AFX_OCC_DIALOG_INFO@@@Z 00417a5e f   mfc71u:MFC71U.DLL
 0001:00016a64       ?CreateControlSite@CWnd@@MAEHPAVCOleControlContainer@@PAPAVCOleControlSite@@IABU_GUID@@@Z 00417a64 f   mfc71u:MFC71U.DLL
 0001:00016a6a       ?CreateControlContainer@CWnd@@MAEHPAPAVCOleControlContainer@@@Z 00417a6a f   mfc71u:MFC71U.DLL
 0001:00016a70       ?IsFrameWnd@CWnd@@UBEHXZ   00417a70 f   mfc71u:MFC71U.DLL
 0001:00016a76       ?CheckAutoCenter@CWnd@@UAEHXZ 00417a76 f   mfc71u:MFC71U.DLL
 0001:00016a7c       ?OnChildNotify@CWnd@@MAEHIIJPAJ@Z 00417a7c f   mfc71u:MFC71U.DLL
 0001:00016a82       ?PostNcDestroy@CWnd@@MAEXXZ 00417a82 f   mfc71u:MFC71U.DLL
 0001:00016a88       ?DefWindowProcW@CWnd@@MAEJIIJ@Z 00417a88 f   mfc71u:MFC71U.DLL
 0001:00016a8e       ?OnWndMsg@CWnd@@MAEHIIJPAJ@Z 00417a8e f   mfc71u:MFC71U.DLL
 0001:00016a94       ?WindowProc@CWnd@@MAEJIIJ@Z 00417a94 f   mfc71u:MFC71U.DLL
 0001:00016a9a       ?OnAmbientProperty@CWnd@@UAEHPAVCOleControlSite@@JPAUtagVARIANT@@@Z 00417a9a f   mfc71u:MFC71U.DLL
 0001:00016aa0       ?PreTranslateMessage@CWnd@@UAEHPAUtagMSG@@@Z 00417aa0 f   mfc71u:MFC71U.DLL
 0001:00016aa6       ?GetSuperWndProcAddr@CWnd@@MAEPAP6GJPAUHWND__@@IIJ@ZXZ 00417aa6 f   mfc71u:MFC71U.DLL
 0001:00016aac       ?OnNotify@CWnd@@MAEHIJPAJ@Z 00417aac f   mfc71u:MFC71U.DLL
 0001:00016ab2       ?OnCommand@CWnd@@MAEHIJ@Z  00417ab2 f   mfc71u:MFC71U.DLL
 0001:00016ab8       ?CreateAccessibleProxy@CWnd@@UAEJIJPAJ@Z 00417ab8 f   mfc71u:MFC71U.DLL
 0001:00016abe       ?SetProxy@CWnd@@UAEJPAUIAccessibleProxy@@@Z 00417abe f   mfc71u:MFC71U.DLL
 0001:00016ac4       ?put_accValue@CWnd@@UAEJUtagVARIANT@@PA_W@Z 00417ac4 f   mfc71u:MFC71U.DLL
 0001:00016aca       ?put_accName@CWnd@@UAEJUtagVARIANT@@PA_W@Z 00417aca f   mfc71u:MFC71U.DLL
 0001:00016ad0       ?accDoDefaultAction@CWnd@@UAEJUtagVARIANT@@@Z 00417ad0 f   mfc71u:MFC71U.DLL
 0001:00016ad6       ?accHitTest@CWnd@@UAEJJJPAUtagVARIANT@@@Z 00417ad6 f   mfc71u:MFC71U.DLL
 0001:00016adc       ?accNavigate@CWnd@@UAEJJUtagVARIANT@@PAU2@@Z 00417adc f   mfc71u:MFC71U.DLL
 0001:00016ae2       ?accLocation@CWnd@@UAEJPAJ000UtagVARIANT@@@Z 00417ae2 f   mfc71u:MFC71U.DLL
 0001:00016ae8       ?accSelect@CWnd@@UAEJJUtagVARIANT@@@Z 00417ae8 f   mfc71u:MFC71U.DLL
 0001:00016aee       ?get_accDefaultAction@CWnd@@UAEJUtagVARIANT@@PAPA_W@Z 00417aee f   mfc71u:MFC71U.DLL
 0001:00016af4       ?get_accSelection@CWnd@@UAEJPAUtagVARIANT@@@Z 00417af4 f   mfc71u:MFC71U.DLL
 0001:00016afa       ?get_accFocus@CWnd@@UAEJPAUtagVARIANT@@@Z 00417afa f   mfc71u:MFC71U.DLL
 0001:00016b00       ?get_accKeyboardShortcut@CWnd@@UAEJUtagVARIANT@@PAPA_W@Z 00417b00 f   mfc71u:MFC71U.DLL
 0001:00016b06       ?get_accHelpTopic@CWnd@@UAEJPAPA_WUtagVARIANT@@PAJ@Z 00417b06 f   mfc71u:MFC71U.DLL
 0001:00016b0c       ?get_accHelp@CWnd@@UAEJUtagVARIANT@@PAPA_W@Z 00417b0c f   mfc71u:MFC71U.DLL
 0001:00016b12       ?get_accState@CWnd@@UAEJUtagVARIANT@@PAU2@@Z 00417b12 f   mfc71u:MFC71U.DLL
 0001:00016b18       ?get_accRole@CWnd@@UAEJUtagVARIANT@@PAU2@@Z 00417b18 f   mfc71u:MFC71U.DLL
 0001:00016b1e       ?get_accDescription@CWnd@@UAEJUtagVARIANT@@PAPA_W@Z 00417b1e f   mfc71u:MFC71U.DLL
 0001:00016b24       ?get_accValue@CWnd@@UAEJUtagVARIANT@@PAPA_W@Z 00417b24 f   mfc71u:MFC71U.DLL
 0001:00016b2a       ?get_accName@CWnd@@UAEJUtagVARIANT@@PAPA_W@Z 00417b2a f   mfc71u:MFC71U.DLL
 0001:00016b30       ?get_accChild@CWnd@@UAEJUtagVARIANT@@PAPAUIDispatch@@@Z 00417b30 f   mfc71u:MFC71U.DLL
 0001:00016b36       ?get_accChildCount@CWnd@@UAEJPAJ@Z 00417b36 f   mfc71u:MFC71U.DLL
 0001:00016b3c       ?get_accParent@CWnd@@UAEJPAPAUIDispatch@@@Z 00417b3c f   mfc71u:MFC71U.DLL
 0001:00016b42       ?EnsureStdObj@CWnd@@UAEJXZ 00417b42 f   mfc71u:MFC71U.DLL
 0001:00016b48       ?EndModalLoop@CWnd@@UAEXH@Z 00417b48 f   mfc71u:MFC71U.DLL
 0001:00016b4e       ?ContinueModal@CWnd@@UAEHXZ 00417b4e f   mfc71u:MFC71U.DLL
 0001:00016b54       ?WinHelpInternal@CWnd@@UAEXKI@Z 00417b54 f   mfc71u:MFC71U.DLL
 0001:00016b5a       ?HtmlHelpW@CWnd@@UAEXKI@Z  00417b5a f   mfc71u:MFC71U.DLL
 0001:00016b60       ?WinHelpW@CWnd@@UAEXKI@Z   00417b60 f   mfc71u:MFC71U.DLL
 0001:00016b66       ?GetScrollBarCtrl@CWnd@@UBEPAVCScrollBar@@H@Z 00417b66 f   mfc71u:MFC71U.DLL
 0001:00016b6c       ?OnToolHitTest@CWnd@@UBEHVCPoint@@PAUtagTOOLINFOW@@@Z 00417b6c f   mfc71u:MFC71U.DLL
 0001:00016b72       ?CalcWindowRect@CWnd@@UAEXPAUtagRECT@@I@Z 00417b72 f   mfc71u:MFC71U.DLL
 0001:00016b78       ?PreCreateWindow@CWnd@@UAEHAAUtagCREATESTRUCTW@@@Z 00417b78 f   mfc71u:MFC71U.DLL
 0001:00016b7e       ?DestroyWindow@CWnd@@UAEHXZ 00417b7e f   mfc71u:MFC71U.DLL
 0001:00016b84       ?CreateEx@CWnd@@UAEHKPB_W0KHHHHPAUHWND__@@PAUHMENU__@@PAX@Z 00417b84 f   mfc71u:MFC71U.DLL
 0001:00016b8a       ?CreateEx@CWnd@@UAEHKPB_W0KABUtagRECT@@PAV1@IPAX@Z 00417b8a f   mfc71u:MFC71U.DLL
 0001:00016b90       ?Create@CWnd@@UAEHPB_W0KABUtagRECT@@PAV1@IPAUCCreateContext@@@Z 00417b90 f   mfc71u:MFC71U.DLL
 0001:00016b96       ?GetConnectionHook@CCmdTarget@@MAEPAUIConnectionPoint@@ABU_GUID@@@Z 00417b96 f   mfc71u:MFC71U.DLL
 0001:00016b9c       ?GetExtraConnectionPoints@CCmdTarget@@MAEHPAVCPtrArray@@@Z 00417b9c f   mfc71u:MFC71U.DLL
 0001:00016ba2       ?GetInterfaceHook@CCmdTarget@@UAEPAUIUnknown@@PBX@Z 00417ba2 f   mfc71u:MFC71U.DLL
 0001:00016ba8       ?OnCreateAggregates@CCmdTarget@@UAEHXZ 00417ba8 f   mfc71u:MFC71U.DLL
 0001:00016bae       ?GetEventSinkMap@CCmdTarget@@MBEPBUAFX_EVENTSINKMAP@@XZ 00417bae f   mfc71u:MFC71U.DLL
 0001:00016bb4       ?GetInterfaceMap@CWnd@@MBEPBUAFX_INTERFACEMAP@@XZ 00417bb4 f   mfc71u:MFC71U.DLL
 0001:00016bba       ?GetConnectionMap@CCmdTarget@@MBEPBUAFX_CONNECTIONMAP@@XZ 00417bba f   mfc71u:MFC71U.DLL
 0001:00016bc0       ?GetDispatchMap@CCmdTarget@@MBEPBUAFX_DISPMAP@@XZ 00417bc0 f   mfc71u:MFC71U.DLL
 0001:00016bc6       ?GetCommandMap@CCmdTarget@@MBEPBUAFX_OLECMDMAP@@XZ 00417bc6 f   mfc71u:MFC71U.DLL
 0001:00016bcc       ?GetMessageMap@CWnd@@MBEPBUAFX_MSGMAP@@XZ 00417bcc f   mfc71u:MFC71U.DLL
 0001:00016bd2       ?GetTypeLib@CCmdTarget@@UAEJKPAPAUITypeLib@@@Z 00417bd2 f   mfc71u:MFC71U.DLL
 0001:00016bd8       ?GetTypeLibCache@CCmdTarget@@UAEPAVCTypeLibCache@@XZ 00417bd8 f   mfc71u:MFC71U.DLL
 0001:00016bde       ?GetTypeInfoCount@CCmdTarget@@UAEIXZ 00417bde f   mfc71u:MFC71U.DLL
 0001:00016be4       ?GetDispatchIID@CCmdTarget@@UAEHPAU_GUID@@@Z 00417be4 f   mfc71u:MFC71U.DLL
 0001:00016bea       ?IsInvokeAllowed@CCmdTarget@@UAEHJ@Z 00417bea f   mfc71u:MFC71U.DLL
 0001:00016bf0       ?OnFinalRelease@CWnd@@UAEXXZ 00417bf0 f   mfc71u:MFC71U.DLL
 0001:00016bf6       ?OnCmdMsg@CCmdTarget@@UAEHIHPAXPAUAFX_CMDHANDLERINFO@@@Z 00417bf6 f   mfc71u:MFC71U.DLL
 0001:00016bfc       ?GetRuntimeClass@CRichEditCtrl@@UBEPAUCRuntimeClass@@XZ 00417bfc f   mfc71u:MFC71U.DLL
 0001:00016c02       ??0CWnd@@QAE@XZ            00417c02 f   mfc71u:MFC71U.DLL
 0001:00016c08       ??1CRichEditCtrl@@UAE@XZ   00417c08 f   mfc71u:MFC71U.DLL
 0001:00016c0e       ?CreatePointFont@CFont@@QAEHHPB_WPAVCDC@@@Z 00417c0e f   mfc71u:MFC71U.DLL
 0001:00016c14       ?GetStyle@CWnd@@QBEKXZ     00417c14 f   mfc71u:MFC71U.DLL
 0001:00016c1a       ?MoveWindow@CWnd@@QAEXHHHHH@Z 00417c1a f   mfc71u:MFC71U.DLL
 0001:00016c20       ?ModifyStyle@CWnd@@QAEHKKI@Z 00417c20 f   mfc71u:MFC71U.DLL
 0001:00016c26       ??1?$CStringT@_WV?$StrTraitMFC_DLL@_WV?$ChTraitsCRT@_W@ATL@@@@@ATL@@QAE@XZ 00417c26 f   mfc71u:MFC71U.DLL
 0001:00016c2c       ?GetBuffer@?$CSimpleStringT@_W$00@ATL@@QAEPA_WH@Z 00417c2c f   mfc71u:MFC71U.DLL
 0001:00016c32       ?Format@?$CStringT@_WV?$StrTraitMFC_DLL@_WV?$ChTraitsCRT@_W@ATL@@@@@ATL@@QAAXPB_WZZ 00417c32 f   mfc71u:MFC71U.DLL
 0001:00016c38       ??0?$CStringT@_WV?$StrTraitMFC_DLL@_WV?$ChTraitsCRT@_W@ATL@@@@@ATL@@QAE@PB_W@Z 00417c38 f   mfc71u:MFC71U.DLL
 0001:00016c3e       ?LoadSysPolicies@CWinApp@@UAEHXZ 00417c3e f   mfc71u:MFC71U.DLL
 0001:00016c44       ?LoadAppLangResourceDLL@CWinApp@@UAEPAUHINSTANCE__@@XZ 00417c44 f   mfc71u:MFC71U.DLL
 0001:00016c4a       ?WinHelpInternal@CWinApp@@UAEXKI@Z 00417c4a f   mfc71u:MFC71U.DLL
 0001:00016c50       ?HtmlHelpW@CWinApp@@UAEXKI@Z 00417c50 f   mfc71u:MFC71U.DLL
 0001:00016c56       ?WinHelpW@CWinApp@@UAEXKI@Z 00417c56 f   mfc71u:MFC71U.DLL
 0001:00016c5c       ?OnDDECommand@CWinApp@@UAEHPA_W@Z 00417c5c f   mfc71u:MFC71U.DLL
 0001:00016c62       ?DoWaitCursor@CWinApp@@UAEXH@Z 00417c62 f   mfc71u:MFC71U.DLL
 0001:00016c68       ?DoMessageBox@CWinApp@@UAEHPB_WII@Z 00417c68 f   mfc71u:MFC71U.DLL
 0001:00016c6e       ?SaveAllModified@CWinApp@@UAEHXZ 00417c6e f   mfc71u:MFC71U.DLL
 0001:00016c74       ?InitApplication@CWinApp@@UAEHXZ 00417c74 f   mfc71u:MFC71U.DLL
 0001:00016c7a       ?AddToRecentFileList@CWinApp@@UAEXPB_W@Z 00417c7a f   mfc71u:MFC71U.DLL
 0001:00016c80       ?OpenDocumentFile@CWinApp@@UAEPAVCDocument@@PB_W@Z 00417c80 f   mfc71u:MFC71U.DLL
 0001:00016c86       ?Unregister@CWinApp@@UAEHXZ 00417c86 f   mfc71u:MFC71U.DLL
 0001:00016c8c       ?Register@CWinApp@@UAEHXZ  00417c8c f   mfc71u:MFC71U.DLL
 0001:00016c92       ?InitLibId@CWinApp@@UAEXXZ 00417c92 f   mfc71u:MFC71U.DLL
 0001:00016c98       ?Delete@CWinThread@@UAEXXZ 00417c98 f   mfc71u:MFC71U.DLL
 0001:00016c9e       ?GetMainWnd@CWinThread@@UAEPAVCWnd@@XZ 00417c9e f   mfc71u:MFC71U.DLL
 0001:00016ca4       ?ProcessMessageFilter@CWinThread@@UAEHHPAUtagMSG@@@Z 00417ca4 f   mfc71u:MFC71U.DLL
 0001:00016caa       ?ProcessWndProcException@CWinApp@@UAEJPAVCException@@PBUtagMSG@@@Z 00417caa f   mfc71u:MFC71U.DLL
 0001:00016cb0       ?IsIdleMessage@CWinThread@@UAEHPAUtagMSG@@@Z 00417cb0 f   mfc71u:MFC71U.DLL
 0001:00016cb6       ?OnIdle@CWinApp@@UAEHJ@Z   00417cb6 f   mfc71u:MFC71U.DLL
 0001:00016cbc       ?PumpMessage@CWinThread@@UAEHXZ 00417cbc f   mfc71u:MFC71U.DLL
 0001:00016cc2       ?PreTranslateMessage@CWinThread@@UAEHPAUtagMSG@@@Z 00417cc2 f   mfc71u:MFC71U.DLL
 0001:00016cc8       ?GetInterfaceMap@CCmdTarget@@MBEPBUAFX_INTERFACEMAP@@XZ 00417cc8 f   mfc71u:MFC71U.DLL
 0001:00016cce       ?OnFinalRelease@CCmdTarget@@UAEXXZ 00417cce f   mfc71u:MFC71U.DLL
 0001:00016cd4       ?GetRuntimeClass@CWinApp@@UBEPAUCRuntimeClass@@XZ 00417cd4 f   mfc71u:MFC71U.DLL
 0001:00016cda       ??2@YAPAXI@Z               00417cda f   mfc71u:MFC71U.DLL
 0001:00016ce0       ?GetRuntimeClass@CWnd@@UBEPAUCRuntimeClass@@XZ 00417ce0 f   mfc71u:MFC71U.DLL
 0001:00016ce6       ?Compare@?$CStringT@_WV?$StrTraitMFC_DLL@_WV?$ChTraitsCRT@_W@ATL@@@@@ATL@@QBEHPB_W@Z 00417ce6 f   mfc71u:MFC71U.DLL
 0001:00016cec       ?AfxGetThread@@YGPAVCWinThread@@XZ 00417cec f   mfc71u:MFC71U.DLL
 0001:00016cf2       ??B?$CSimpleStringT@_W$00@ATL@@QBEPB_WXZ 00417cf2 f   mfc71u:MFC71U.DLL
 0001:00016cf8       ?Right@?$CStringT@_WV?$StrTraitMFC_DLL@_WV?$ChTraitsCRT@_W@ATL@@@@@ATL@@QBE?AV12@H@Z 00417cf8 f   mfc71u:MFC71U.DLL
 0001:00016cfe       ?GetLength@?$CSimpleStringT@_W$00@ATL@@QBEHXZ 00417cfe f   mfc71u:MFC71U.DLL
 0001:00016d04       ??4?$CStringT@_WV?$StrTraitMFC_DLL@_WV?$ChTraitsCRT@_W@ATL@@@@@ATL@@QAEAAV01@ABV01@@Z 00417d04 f   mfc71u:MFC71U.DLL
 0001:00016d0a       ?Left@?$CStringT@_WV?$StrTraitMFC_DLL@_WV?$ChTraitsCRT@_W@ATL@@@@@ATL@@QBE?AV12@H@Z 00417d0a f   mfc71u:MFC71U.DLL
 0001:00016d10       ?Find@?$CStringT@_WV?$StrTraitMFC_DLL@_WV?$ChTraitsCRT@_W@ATL@@@@@ATL@@QBEHPB_WH@Z 00417d10 f   mfc71u:MFC71U.DLL
 0001:00016d16       ??0?$CStringT@_WV?$StrTraitMFC_DLL@_WV?$ChTraitsCRT@_W@ATL@@@@@ATL@@QAE@XZ 00417d16 f   mfc71u:MFC71U.DLL
 0001:00016d1c       ??0?$CStringT@_WV?$StrTraitMFC_DLL@_WV?$ChTraitsCRT@_W@ATL@@@@@ATL@@QAE@ABV01@@Z 00417d1c f   mfc71u:MFC71U.DLL
 0001:00016d22       ??Y?$CStringT@_WV?$StrTraitMFC_DLL@_WV?$ChTraitsCRT@_W@ATL@@@@@ATL@@QAEAAV01@ABV?$CSimpleStringT@_W$00@1@@Z 00417d22 f   mfc71u:MFC71U.DLL
 0001:00016d28       ?GetAt@?$CSimpleStringT@_W$00@ATL@@QBE_WH@Z 00417d28 f   mfc71u:MFC71U.DLL
 0001:00016d2e       ?Insert@?$CStringT@_WV?$StrTraitMFC_DLL@_WV?$ChTraitsCRT@_W@ATL@@@@@ATL@@QAEHH_W@Z 00417d2e f   mfc71u:MFC71U.DLL
 0001:00016d34       ?OnDestroy@CWnd@@IAEXXZ    00417d34 f   mfc71u:MFC71U.DLL
 0001:00016d3a       ?GetRuntimeClass@CBrush@@UBEPAUCRuntimeClass@@XZ 00417d3a f   mfc71u:MFC71U.DLL
 0001:00016d40       ?Create@CEdit@@UAEHKABUtagRECT@@PAVCWnd@@I@Z 00417d40 f   mfc71u:MFC71U.DLL
 0001:00016d46       ?GetRuntimeClass@CEdit@@UBEPAUCRuntimeClass@@XZ 00417d46 f   mfc71u:MFC71U.DLL
 0001:00016d4c       ??1CEdit@@UAE@XZ           00417d4c f   mfc71u:MFC71U.DLL
 0001:00016d52       ?SetBkMode@CDC@@QAEHH@Z    00417d52 f   mfc71u:MFC71U.DLL
 0001:00016d58       ?GetDlgItem@CWnd@@QBEPAV1@H@Z 00417d58 f   mfc71u:MFC71U.DLL
 0001:00016d5e       ?OnCtlColor@CWnd@@IAEPAUHBRUSH__@@PAVCDC@@PAV1@I@Z 00417d5e f   mfc71u:MFC71U.DLL
 0001:00016d64       ??4?$CStringT@_WV?$StrTraitMFC_DLL@_WV?$ChTraitsCRT@_W@ATL@@@@@ATL@@QAEAAV01@PB_W@Z 00417d64 f   mfc71u:MFC71U.DLL
 0001:00016d6a       ?SetFocus@CWnd@@QAEPAV1@XZ 00417d6a f   mfc71u:MFC71U.DLL
 0001:00016d70       ?SetWindowTextW@CWnd@@QAEXPB_W@Z 00417d70 f   mfc71u:MFC71U.DLL
 0001:00016d76       ?GetWindowTextW@CWnd@@QBEXAAV?$CStringT@_WV?$StrTraitMFC_DLL@_WV?$ChTraitsCRT@_W@ATL@@@@@ATL@@@Z 00417d76 f   mfc71u:MFC71U.DLL
 0001:00016d7c       ?GetThisMessageMap@CFrameWnd@@KGPBUAFX_MSGMAP@@XZ 00417d7c f   mfc71u:MFC71U.DLL
 0001:00016d82       ?ExitHelpMode@CFrameWnd@@UAEXXZ 00417d82 f   mfc71u:MFC71U.DLL
 0001:00016d88       ?DelayUpdateFrameMenu@CFrameWnd@@UAEXPAUHMENU__@@@Z 00417d88 f   mfc71u:MFC71U.DLL
 0001:00016d8e       ?GetDefaultAccelerator@CFrameWnd@@UAEPAUHACCEL__@@XZ 00417d8e f   mfc71u:MFC71U.DLL
 0001:00016d94       ?OnUpdateFrameMenu@CFrameWnd@@UAEXPAUHMENU__@@@Z 00417d94 f   mfc71u:MFC71U.DLL
 0001:00016d9a       ?OnUpdateFrameTitle@CFrameWnd@@UAEXH@Z 00417d9a f   mfc71u:MFC71U.DLL
 0001:00016da0       ?OnCreateClient@CFrameWnd@@MAEHPAUtagCREATESTRUCTW@@PAUCCreateContext@@@Z 00417da0 f   mfc71u:MFC71U.DLL
 0001:00016da6       ?NegotiateBorderSpace@CFrameWnd@@UAEHIPAUtagRECT@@@Z 00417da6 f   mfc71u:MFC71U.DLL
 0001:00016dac       ?GetMessageBar@CFrameWnd@@UAEPAVCWnd@@XZ 00417dac f   mfc71u:MFC71U.DLL
 0001:00016db2       ?OnSetPreviewMode@CFrameWnd@@UAEXHPAUCPrintPreviewState@@@Z 00417db2 f   mfc71u:MFC71U.DLL
 0001:00016db8       ?ActivateFrame@CFrameWnd@@UAEXH@Z 00417db8 f   mfc71u:MFC71U.DLL
 0001:00016dbe       ?RecalcLayout@CFrameWnd@@UAEXH@Z 00417dbe f   mfc71u:MFC71U.DLL
 0001:00016dc4       ?GetMessageString@CFrameWnd@@UBEXIAAV?$CStringT@_WV?$StrTraitMFC_DLL@_WV?$ChTraitsCRT@_W@ATL@@@@@ATL@@@Z 00417dc4 f   mfc71u:MFC71U.DLL
 0001:00016dca       ?GetActiveFrame@CFrameWnd@@UAEPAV1@XZ 00417dca f   mfc71u:MFC71U.DLL
 0001:00016dd0       ?GetActiveDocument@CFrameWnd@@UAEPAVCDocument@@XZ 00417dd0 f   mfc71u:MFC71U.DLL
 0001:00016dd6       ?LoadFrame@CFrameWnd@@UAEHIKPAVCWnd@@PAUCCreateContext@@@Z 00417dd6 f   mfc71u:MFC71U.DLL
 0001:00016ddc       ?Create@CFrameWnd@@UAEHPB_W0KABUtagRECT@@PAVCWnd@@0KPAUCCreateContext@@@Z 00417ddc f   mfc71u:MFC71U.DLL
 0001:00016de2       ?IsFrameWnd@CFrameWnd@@UBEHXZ 00417de2 f   mfc71u:MFC71U.DLL
 0001:00016de8       ?PostNcDestroy@CFrameWnd@@MAEXXZ 00417de8 f   mfc71u:MFC71U.DLL
 0001:00016dee       ?EndModalState@CFrameWnd@@UAEXXZ 00417dee f   mfc71u:MFC71U.DLL
 0001:00016df4       ?BeginModalState@CFrameWnd@@UAEXXZ 00417df4 f   mfc71u:MFC71U.DLL
 0001:00016dfa       ?PreCreateWindow@CFrameWnd@@MAEHAAUtagCREATESTRUCTW@@@Z 00417dfa f   mfc71u:MFC71U.DLL
 0001:00016e00       ?OnCmdMsg@CFrameWnd@@UAEHIHPAXPAUAFX_CMDHANDLERINFO@@@Z 00417e00 f   mfc71u:MFC71U.DLL
 0001:00016e06       ?GetRuntimeClass@CFrameWnd@@UBEPAUCRuntimeClass@@XZ 00417e06 f   mfc71u:MFC71U.DLL
 0001:00016e0c       ??1CFrameWnd@@UAE@XZ       00417e0c f   mfc71u:MFC71U.DLL
 0001:00016e12       ?PreTranslateMessage@CFrameWnd@@UAEHPAUtagMSG@@@Z 00417e12 f   mfc71u:MFC71U.DLL
 0001:00016e18       ?OnSettingChange@CWnd@@IAEXIPB_W@Z 00417e18 f   mfc71u:MFC71U.DLL
 0001:00016e1e       ?OnCommand@CFrameWnd@@MAEHIJ@Z 00417e1e f   mfc71u:MFC71U.DLL
 0001:00016e24       ?OnSize@CFrameWnd@@IAEXIHH@Z 00417e24 f   mfc71u:MFC71U.DLL
 0001:00016e2a       ?SetWindowPos@CWnd@@QAEHPBV1@HHHHI@Z 00417e2a f   mfc71u:MFC71U.DLL
 0001:00016e30       ?ModifyStyleEx@CWnd@@QAEHKKI@Z 00417e30 f   mfc71u:MFC71U.DLL
 0001:00016e36       ?OnCreate@CFrameWnd@@IAEHPAUtagCREATESTRUCTW@@@Z 00417e36 f   mfc71u:MFC71U.DLL
 0001:00016e3c       ??1CPaintDC@@UAE@XZ        00417e3c f   mfc71u:MFC71U.DLL
 0001:00016e42       ?SetTextColor@CDC@@UAEKK@Z 00417e42 f   mfc71u:MFC71U.DLL
 0001:00016e48       ??0CPaintDC@@QAE@PAVCWnd@@@Z 00417e48 f   mfc71u:MFC71U.DLL
 0001:00016e4e       ??0CFrameWnd@@QAE@XZ       00417e4e f   mfc71u:MFC71U.DLL
 0001:00016e54       ?Create@CButton@@UAEHPB_WKABUtagRECT@@PAVCWnd@@I@Z 00417e54 f   mfc71u:MFC71U.DLL
 0001:00016e5a       ?OnChildNotify@CButton@@MAEHIIJPAJ@Z 00417e5a f   mfc71u:MFC71U.DLL
 0001:00016e60       ?GetRuntimeClass@CButton@@UBEPAUCRuntimeClass@@XZ 00417e60 f   mfc71u:MFC71U.DLL
 0001:00016e66       ?GetRuntimeClass@CBitmap@@UBEPAUCRuntimeClass@@XZ 00417e66 f   mfc71u:MFC71U.DLL
 0001:00016e6c       ?AfxFindResourceHandle@@YGPAUHINSTANCE__@@PB_W0@Z 00417e6c f   mfc71u:MFC71U.DLL
 0001:00016e72       ?Attach@CDC@@QAEHPAUHDC__@@@Z 00417e72 f   mfc71u:MFC71U.DLL
 0001:00016e78       ?SelectGdiObject@CDC@@KGPAVCGdiObject@@PAUHDC__@@PAX@Z 00417e78 f   mfc71u:MFC71U.DLL
 0001:00016e7e       ??1CDC@@UAE@XZ             00417e7e f   mfc71u:MFC71U.DLL
 0001:00016e84       ?FromHandle@CDC@@SGPAV1@PAUHDC__@@@Z 00417e84 f   mfc71u:MFC71U.DLL
 0001:00016e8a       ??0CDC@@QAE@XZ             00417e8a f   mfc71u:MFC71U.DLL
 0001:00016e90       ?DrawItem@CStatic@@UAEXPAUtagDRAWITEMSTRUCT@@@Z 00417e90 f   mfc71u:MFC71U.DLL
 0001:00016e96       ?Create@CStatic@@UAEHPB_WKABUtagRECT@@PAVCWnd@@I@Z 00417e96 f   mfc71u:MFC71U.DLL
 0001:00016e9c       ?OnChildNotify@CStatic@@MAEHIIJPAJ@Z 00417e9c f   mfc71u:MFC71U.DLL
 0001:00016ea2       ?GetRuntimeClass@CStatic@@UBEPAUCRuntimeClass@@XZ 00417ea2 f   mfc71u:MFC71U.DLL
 0001:00016ea8       ??1CStatic@@UAE@XZ         00417ea8 f   mfc71u:MFC71U.DLL
 0001:00016eae       ?GetClipBox@CDC@@UBEHPAUtagRECT@@@Z 00417eae f   mfc71u:MFC71U.DLL
 0001:00016eb4       ?ScaleWindowExt@CDC@@UAE?AVCSize@@HHHH@Z 00417eb4 f   mfc71u:MFC71U.DLL
 0001:00016eba       ?SetWindowExt@CDC@@UAE?AVCSize@@HH@Z 00417eba f   mfc71u:MFC71U.DLL
 0001:00016ec0       ?ScaleViewportExt@CDC@@UAE?AVCSize@@HHHH@Z 00417ec0 f   mfc71u:MFC71U.DLL
 0001:00016ec6       ?SetViewportExt@CDC@@UAE?AVCSize@@HH@Z 00417ec6 f   mfc71u:MFC71U.DLL
 0001:00016ecc       ?OffsetViewportOrg@CDC@@UAE?AVCPoint@@HH@Z 00417ecc f   mfc71u:MFC71U.DLL
 0001:00016ed2       ?SetViewportOrg@CDC@@UAE?AVCPoint@@HH@Z 00417ed2 f   mfc71u:MFC71U.DLL
 0001:00016ed8       ?SetMapMode@CDC@@UAEHH@Z   00417ed8 f   mfc71u:MFC71U.DLL
 0001:00016ede       ?SetBkColor@CDC@@UAEKK@Z   00417ede f   mfc71u:MFC71U.DLL
 0001:00016ee4       ?SelectObject@CDC@@UAEPAVCFont@@PAV2@@Z 00417ee4 f   mfc71u:MFC71U.DLL
 0001:00016eea       ?SelectStockObject@CDC@@UAEPAVCGdiObject@@H@Z 00417eea f   mfc71u:MFC71U.DLL
 0001:00016ef0       ?RestoreDC@CDC@@UAEHH@Z    00417ef0 f   mfc71u:MFC71U.DLL
 0001:00016ef6       ?SaveDC@CDC@@UAEHXZ        00417ef6 f   mfc71u:MFC71U.DLL
 0001:00016efc       ?ReleaseOutputDC@CDC@@UAEXXZ 00417efc f   mfc71u:MFC71U.DLL
 0001:00016f02       ?ReleaseAttribDC@CDC@@UAEXXZ 00417f02 f   mfc71u:MFC71U.DLL
 0001:00016f08       ?SetOutputDC@CDC@@UAEXPAUHDC__@@@Z 00417f08 f   mfc71u:MFC71U.DLL
 0001:00016f0e       ?SetAttribDC@CDC@@UAEXPAUHDC__@@@Z 00417f0e f   mfc71u:MFC71U.DLL
 0001:00016f14       ?GetRuntimeClass@CDC@@UBEPAUCRuntimeClass@@XZ 00417f14 f   mfc71u:MFC71U.DLL
 0001:00016f1a       ?GetScrollInfo@CWnd@@QAEHHPAUtagSCROLLINFO@@I@Z 00417f1a f   mfc71u:MFC71U.DLL
 0001:00016f20       ??1CClientDC@@UAE@XZ       00417f20 f   mfc71u:MFC71U.DLL
 0001:00016f26       ?FillSolidRect@CDC@@QAEXPBUtagRECT@@K@Z 00417f26 f   mfc71u:MFC71U.DLL
 0001:00016f2c       ??0CClientDC@@QAE@PAVCWnd@@@Z 00417f2c f   mfc71u:MFC71U.DLL
 0001:00016f32       ?GetScrollPos@CWnd@@QBEHH@Z 00417f32 f   mfc71u:MFC71U.DLL
 0001:00016f38       ?GetScrollLimit@CWnd@@QAEHH@Z 00417f38 f   mfc71u:MFC71U.DLL
 0001:00016f3e       ??Y?$CStringT@_WV?$StrTraitMFC_DLL@_WV?$ChTraitsCRT@_W@ATL@@@@@ATL@@QAEAAV01@PB_W@Z 00417f3e f   mfc71u:MFC71U.DLL
 0001:00016f44       ??1CComBSTR@ATL@@QAE@XZ    00417f44 f i mfcs71u:stdafx.obj
 0001:00016f4d       ??1stringdispid@CComTypeInfoHolder@ATL@@QAE@XZ 00417f4d f i mfcs71u:stdafx.obj
 0001:00016f56       ??_Estringdispid@CComTypeInfoHolder@ATL@@QAEPAXI@Z 00417f56 f i mfcs71u:stdafx.obj
 0001:00016ff7       _wWinMainCRTStartup        00417ff7 f   msvcrt:wcrtexew.obj
 0001:00017202       ___CxxFrameHandler         00418202 f   msvcrt:MSVCR71.dll
 0001:00017241       @__security_check_cookie@4 00418241 f   msvcrt:secchk.obj
 0001:00017250       _memmove                   00418250 f   msvcrt:MSVCR71.dll
 0001:00017258       __ftol2                    00418258 f   msvcrt:ftol2.obj
 0001:000172cd       __onexit                   004182cd f   msvcrt:atonexit.obj
 0001:000172f3       _atexit                    004182f3 f   msvcrt:atonexit.obj
 0001:00017306       __snwprintf                00418306 f   msvcrt:MSVCR71.dll
 0001:0001731e       ?__ArrayUnwind@@YGXPAXIHP6EX0@Z@Z 0041831e f   msvcrt:ehvecdtr.obj
 0001:0001737c       ??_M@YGXPAXIHP6EX0@Z@Z     0041837c f   msvcrt:ehvecdtr.obj
 0001:000173dc       ??_L@YGXPAXIHP6EX0@Z1@Z    004183dc f   msvcrt:ehvecctr.obj
 0001:0001743e       _wcscpy                    0041843e f   msvcrt:MSVCR71.dll
 0001:00017444       _wcslen                    00418444 f   msvcrt:MSVCR71.dll
 0001:0001744a       _time                      0041844a f   msvcrt:MSVCR71.dll
 0001:00017450       __purecall                 00418450 f   msvcrt:MSVCR71.dll
 0001:00017456       _rand                      00418456 f   msvcrt:MSVCR71.dll
 0001:0001745c       __except_handler3          0041845c f   msvcrt:MSVCR71.dll
 0001:00017462       _free                      00418462 f   msvcrt:MSVCR71.dll
 0001:00017468       ??0exception@@QAE@ABV0@@Z  00418468 f   msvcrt:MSVCR71.dll
 0001:0001746e       ??0bad_cast@@QAE@ABV0@@Z   0041846e f   msvcrt:MSVCR71.dll
 0001:00017474       ??0type_info@@AAE@ABV0@@Z  00418474 f   msvcrt:ti_inst.obj
 0001:0001747f       ??_Etype_info@@UAEPAXI@Z   0041847f f i msvcrt:ti_inst.obj
 0001:000174ca       ??4type_info@@AAEAAV0@ABV0@@Z 004184ca f   msvcrt:ti_inst.obj
 0001:000174d0       ??1bad_cast@@UAE@XZ        004184d0 f   msvcrt:MSVCR71.dll
 0001:000174d6       ??0bad_cast@@QAE@PBD@Z     004184d6 f   msvcrt:MSVCR71.dll
 0001:000174dc       __CxxThrowException@8      004184dc f   msvcrt:MSVCR71.dll
 0001:000174e2       _memset                    004184e2 f   msvcrt:MSVCR71.dll
 0001:000174e8       __SEH_prolog               004184e8 f   msvcrt:sehprolg.obj
 0001:00017523       __SEH_epilog               00418523 f   msvcrt:sehprolg.obj
 0001:00017534       __c_exit                   00418534 f   msvcrt:MSVCR71.dll
 0001:0001753a       __exit                     0041853a f   msvcrt:MSVCR71.dll
 0001:00017540       __XcptFilter               00418540 f   msvcrt:MSVCR71.dll
 0001:00017546       __cexit                    00418546 f   msvcrt:MSVCR71.dll
 0001:0001754c       _exit                      0041854c f   msvcrt:MSVCR71.dll
 0001:00017552       __amsg_exit                00418552 f   msvcrt:MSVCR71.dll
 0001:00017558       ___wgetmainargs            00418558 f   msvcrt:MSVCR71.dll
 0001:0001755e       __RTC_Initialize           0041855e f   msvcrt:initsect.obj
 0001:000175a2       __RTC_Terminate            004185a2 f   msvcrt:initsect.obj
 0001:000175e6       __initterm                 004185e6 f   msvcrt:MSVCR71.dll
 0001:000175ec       __setdefaultprecision      004185ec f   msvcrt:fp8.obj
 0001:000175fe       ___setusermatherr          004185fe f   msvcrt:MSVCR71.dll
 0001:00017604       __matherr                  00418604 f   msvcrt:merr.obj
 0001:00017607       __wsetargv                 00418607 f   msvcrt:wdllargv.obj
 0001:0001760a       ___p__commode              0041860a f   msvcrt:MSVCR71.dll
 0001:00017610       ___p__fmode                00418610 f   msvcrt:MSVCR71.dll
 0001:00017616       ___set_app_type            00418616 f   msvcrt:MSVCR71.dll
 0001:0001761c       ___security_init_cookie    0041861c f   msvcrt:seccinit.obj
 0001:00017682       ___security_error_handler  00418682 f   msvcrt:MSVCR71.dll
 0001:00017688       ___dllonexit               00418688 f   msvcrt:MSVCR71.dll
 0001:0001768e       ?terminate@@YAXXZ          0041868e f   msvcrt:MSVCR71.dll
 0001:00017694       ??1type_info@@UAE@XZ       00418694 f   msvcrt:MSVCR71.dll
 0001:0001769a       __controlfp                0041869a f   msvcrt:MSVCR71.dll
 0001:000176a0       _lstrcpynW@12              004186a0 f   kernel32:KERNEL32.dll
 0001:000176a6       _lstrlenW@4                004186a6 f   kernel32:KERNEL32.dll
 0001:000176ac       _GetModuleHandleW@4        004186ac f   kernel32:KERNEL32.dll
 0001:000176b2       _InterlockedExchange@8     004186b2 f   kernel32:KERNEL32.dll
 0001:000176b8       _GetACP@0                  004186b8 f   kernel32:KERNEL32.dll
 0001:000176be       _GetLocaleInfoA@16         004186be f   kernel32:KERNEL32.dll
 0001:000176c4       _GetThreadLocale@0         004186c4 f   kernel32:KERNEL32.dll
 0001:000176ca       _GetVersionExW@4           004186ca f   kernel32:KERNEL32.dll
 0001:000176d0       _RaiseException@16         004186d0 f   kernel32:KERNEL32.dll
 0001:000176d6       _InitializeCriticalSection@4 004186d6 f   kernel32:KERNEL32.dll
 0001:000176dc       _DeleteCriticalSection@4   004186dc f   kernel32:KERNEL32.dll
 0001:000176e2       _GetModuleHandleA@4        004186e2 f   kernel32:KERNEL32.dll
 0001:000176e8       _GetStartupInfoW@4         004186e8 f   kernel32:KERNEL32.dll
 0001:000176ee       _ExitProcess@4             004186ee f   kernel32:KERNEL32.dll
 0001:000176f4       _QueryPerformanceCounter@4 004186f4 f   kernel32:KERNEL32.dll
 0001:000176fa       _GetTickCount@0            004186fa f   kernel32:KERNEL32.dll
 0001:00017700       _GetCurrentThreadId@0      00418700 f   kernel32:KERNEL32.dll
 0001:00017706       _GetCurrentProcessId@0     00418706 f   kernel32:KERNEL32.dll
 0001:0001770c       _GetSystemTimeAsFileTime@4 0041870c f   kernel32:KERNEL32.dll
 0001:00017712       _SendMessageW@16           00418712 f   user32:USER32.dll
 0001:00017718       _SetCursor@4               00418718 f   user32:USER32.dll
 0001:0001771e       _LoadCursorW@8             0041871e f   user32:USER32.dll
 0001:00017724       _GetWindowRect@8           00418724 f   user32:USER32.dll
 0001:0001772a       _GetClientRect@8           0041872a f   user32:USER32.dll
 0001:00017730       _InvalidateRect@12         00418730 f   user32:USER32.dll
 0001:00017736       _GetParent@4               00418736 f   user32:USER32.dll
 0001:0001773c       _EnableWindow@8            0041873c f   user32:USER32.dll
 0001:00017742       _GetSysColor@4             00418742 f   user32:USER32.dll
 0001:00017748       _GetSystemMetrics@4        00418748 f   user32:USER32.dll
 0001:0001774e       _PostMessageW@16           0041874e f   user32:USER32.dll
 0001:00017754       _SetTimer@16               00418754 f   user32:USER32.dll
 0001:0001775a       _KillTimer@8               0041875a f   user32:USER32.dll
 0001:00017760       _LoadIconW@8               00418760 f   user32:USER32.dll
 0001:00017766       _CopyRect@8                00418766 f   user32:USER32.dll
 0001:0001776c       _SetRect@20                0041876c f   user32:USER32.dll
 0001:00017772       _ScreenToClient@8          00418772 f   user32:USER32.dll
 0001:00017778       _SetCapture@4              00418778 f   user32:USER32.dll
 0001:0001777e       _EndDeferWindowPos@4       0041877e f   user32:USER32.dll
 0001:00017784       _DeferWindowPos@32         00418784 f   user32:USER32.dll
 0001:0001778a       _BeginDeferWindowPos@4     0041878a f   user32:USER32.dll
 0001:00017790       _ReleaseCapture@0          00418790 f   user32:USER32.dll
 0001:00017796       _GetCursorPos@4            00418796 f   user32:USER32.dll
 0001:0001779c       _IsIconic@4                0041879c f   user32:USER32.dll
 0001:000177a2       _SystemParametersInfoW@16  004187a2 f   user32:USER32.dll
 0001:000177a8       _ShowWindow@8              004187a8 f   user32:USER32.dll
 0001:000177ae       _LoadBitmapW@8             004187ae f   user32:USER32.dll
 0001:000177b4       _PtInRect@12               004187b4 f   user32:USER32.dll
 0001:000177ba       _TabbedTextOutW@32         004187ba f   user32:USER32.dll
 0001:000177c0       _DrawTextW@20              004187c0 f   user32:USER32.dll
 0001:000177c6       _DrawTextExW@24            004187c6 f   user32:USER32.dll
 0001:000177cc       _GrayStringW@36            004187cc f   user32:USER32.dll
 0001:000177d2       _UnregisterClassW@8        004187d2 f   user32:USER32.dll
 0001:000177d8       _CreateFontIndirectW@4     004187d8 f   gdi32:GDI32.dll
 0001:000177de       _GetObjectW@12             004187de f   gdi32:GDI32.dll
 0001:000177e4       _CreateSolidBrush@4        004187e4 f   gdi32:GDI32.dll
 0001:000177ea       _SelectObject@8            004187ea f   gdi32:GDI32.dll
 0001:000177f0       _CreateCompatibleDC@4      004187f0 f   gdi32:GDI32.dll
 0001:000177f6       _CreateCompatibleBitmap@12 004187f6 f   gdi32:GDI32.dll
 0001:000177fc       _BitBlt@36                 004187fc f   gdi32:GDI32.dll
 0001:00017802       _StretchBlt@44             00418802 f   gdi32:GDI32.dll
 0001:00017808       _PtVisible@12              00418808 f   gdi32:GDI32.dll
 0001:0001780e       _RectVisible@8             0041880e f   gdi32:GDI32.dll
 0001:00017814       _TextOutW@20               00418814 f   gdi32:GDI32.dll
 0001:0001781a       _ExtTextOutW@32            0041881a f   gdi32:GDI32.dll
 0001:00017820       _Escape@20                 00418820 f   gdi32:GDI32.dll
 0001:00017826       _TransparentBlt@44         00418826 f   msimg32:MSIMG32.dll
 0001:0001782c       _FlatSB_EnableScrollBar@12 0041882c f   comctl32:COMCTL32.dll
 0001:00017832       _InitializeFlatSB@4        00418832 f   comctl32:COMCTL32.dll
 0001:00017838       _SysFreeString@4           00418838 f   oleaut32:OLEAUT32.dll
 0001:0001783e       ??0?$CSimpleArray@PAUHINSTANCE__@@V?$CSimpleArrayEqualHelper@PAUHINSTANCE__@@@ATL@@@ATL@@QAE@XZ 0041883e f i atls:atlbase.obj
 0001:0001784b       ?GetSize@?$CSimpleArray@PAUHINSTANCE__@@V?$CSimpleArrayEqualHelper@PAUHINSTANCE__@@@ATL@@@ATL@@QBEHXZ 0041884b f i atls:atlbase.obj
 0001:0001784f       ?RemoveAt@?$CSimpleArray@PAUHINSTANCE__@@V?$CSimpleArrayEqualHelper@PAUHINSTANCE__@@@ATL@@@ATL@@QAEHH@Z 0041884f f i atls:atlbase.obj
 0001:00017892       ?RemoveAll@?$CSimpleArray@PAUHINSTANCE__@@V?$CSimpleArrayEqualHelper@PAUHINSTANCE__@@@ATL@@@ATL@@QAEXXZ 00418892 f i atls:atlbase.obj
 0001:000178af       ??0Wrapper@?$CSimpleArray@PAUHINSTANCE__@@V?$CSimpleArrayEqualHelper@PAUHINSTANCE__@@@ATL@@@ATL@@QAE@ABQAUHINSTANCE__@@@Z 004188af f i atls:atlbase.obj
 0001:000178bc       ??$?2PAUHINSTANCE__@@@Wrapper@?$CSimpleArray@PAUHINSTANCE__@@V?$CSimpleArrayEqualHelper@PAUHINSTANCE__@@@ATL@@@ATL@@SAPAXIPAPAUHINSTANCE__@@@Z 004188bc f i atls:atlbase.obj
 0001:000178c1       ?AtlThrow@ATL@@YGXJ@Z      004188c1 f i atls:atlbase.obj
 0001:000178e5       ?Lock@CComCriticalSection@ATL@@QAEJXZ 004188e5 f i atls:atlbase.obj
 0001:000178ef       ?Unlock@CComCriticalSection@ATL@@QAEJXZ 004188ef f i atls:atlbase.obj
 0001:000178f9       ?Lock@?$CComCritSecLock@VCComCriticalSection@ATL@@@ATL@@QAEJXZ 004188f9 f i atls:atlbase.obj
 0001:0001790c       ??1?$CSimpleArray@PAUHINSTANCE__@@V?$CSimpleArrayEqualHelper@PAUHINSTANCE__@@@ATL@@@ATL@@QAE@XZ 0041890c f i atls:atlbase.obj
 0001:00017911       ??A?$CSimpleArray@PAUHINSTANCE__@@V?$CSimpleArrayEqualHelper@PAUHINSTANCE__@@@ATL@@@ATL@@QAEAAPAUHINSTANCE__@@H@Z 00418911 f i atls:atlbase.obj
 0001:00017938       ?InternalSetAtIndex@?$CSimpleArray@PAUHINSTANCE__@@V?$CSimpleArrayEqualHelper@PAUHINSTANCE__@@@ATL@@@ATL@@QAEXHABQAUHINSTANCE__@@@Z 00418938 f i atls:atlbase.obj
 0001:00017950       ?Unlock@?$CComCritSecLock@VCComCriticalSection@ATL@@@ATL@@QAEXXZ 00418950 f i atls:atlbase.obj
 0001:00017961       ??0?$CComCritSecLock@VCComCriticalSection@ATL@@@ATL@@QAE@AAVCComCriticalSection@1@_N@Z 00418961 f i atls:atlbase.obj
 0001:0001798a       ??1?$CComCritSecLock@VCComCriticalSection@ATL@@@ATL@@QAE@XZ 0041898a f i atls:atlbase.obj
 0001:000179a1       ??0_ATL_BASE_MODULE70@ATL@@QAE@XZ 004189a1 f i atls:atlbase.obj
 0001:000179bb       ??1_ATL_BASE_MODULE70@ATL@@QAE@XZ 004189bb f i atls:atlbase.obj
 0001:000179c3       ??1CAtlBaseModule@ATL@@QAE@XZ 004189c3 f   atls:atlbase.obj
 0001:000179d9       ?RemoveResourceInstance@CAtlBaseModule@ATL@@QAE_NPAUHINSTANCE__@@@Z 004189d9 f   atls:atlbase.obj
 0001:00017a32       ?GetHInstanceAt@CAtlBaseModule@ATL@@QAEPAUHINSTANCE__@@H@Z 00418a32 f   atls:atlbase.obj
 0001:00017a80       ?Add@?$CSimpleArray@PAUHINSTANCE__@@V?$CSimpleArrayEqualHelper@PAUHINSTANCE__@@@ATL@@@ATL@@QAEHABQAUHINSTANCE__@@@Z 00418a80 f i atls:atlbase.obj
 0001:00017acb       ??0CAtlBaseModule@ATL@@QAE@XZ 00418acb f   atls:atlbase.obj
 0001:00017b76       ?AddResourceInstance@CAtlBaseModule@ATL@@QAE_NPAUHINSTANCE__@@@Z 00418b76 f   atls:atlbase.obj
 0001:00017bb2       ?_Unlock@?$basic_streambuf@DU?$char_traits@D@std@@@std@@QAEXXZ 00418bb2 f   msvcprt:MSVCP71.dll
 0001:00017bb8       ?rdbuf@?$basic_ios@DU?$char_traits@D@std@@@std@@QBEPAV?$basic_streambuf@DU?$char_traits@D@std@@@2@XZ 00418bb8 f   msvcprt:MSVCP71.dll
 0001:00017bbe       ?_Unlock@?$basic_streambuf@_WU?$char_traits@_W@std@@@std@@QAEXXZ 00418bbe f   msvcprt:MSVCP71.dll
 0001:00017bc4       ?rdbuf@?$basic_ios@_WU?$char_traits@_W@std@@@std@@QBEPAV?$basic_streambuf@_WU?$char_traits@_W@std@@@2@XZ 00418bc4 f   msvcprt:MSVCP71.dll
 0001:00017bca       ?_Lock@?$basic_streambuf@DU?$char_traits@D@std@@@std@@QAEXXZ 00418bca f   msvcprt:MSVCP71.dll
 0001:00017bd0       ?_Lock@?$basic_streambuf@_WU?$char_traits@_W@std@@@std@@QAEXXZ 00418bd0 f   msvcprt:MSVCP71.dll
 0001:00017bd6       ??1_Lockit@std@@QAE@XZ     00418bd6 f   msvcprt:MSVCP71.dll
 0001:00017bdc       ?_Register@facet@locale@std@@QAEXXZ 00418bdc f   msvcprt:MSVCP71.dll
 0001:00017be2       ?_Incref@facet@locale@std@@QAEXXZ 00418be2 f   msvcprt:MSVCP71.dll
 0001:00017be8       ?_Getcat@?$ctype@D@std@@SAIPAPBVfacet@locale@2@@Z 00418be8 f   msvcprt:MSVCP71.dll
 0001:00017bee       ?_Getfacet@locale@std@@QBEPBVfacet@12@I@Z 00418bee f   msvcprt:MSVCP71.dll
 0001:00017bf4       ??Bid@locale@std@@QAEIXZ   00418bf4 f   msvcprt:MSVCP71.dll
 0001:00017bfa       ??0_Lockit@std@@QAE@H@Z    00418bfa f   msvcprt:MSVCP71.dll
 0001:00017c00       ?_Getcat@?$ctype@_W@std@@SAIPAPBVfacet@locale@2@@Z 00418c00 f   msvcprt:MSVCP71.dll
 0001:00017c06       ??1?$basic_string@DU?$char_traits@D@std@@V?$allocator@D@2@@std@@QAE@XZ 00418c06 f   msvcprt:MSVCP71.dll
 0001:00017c0c       ??Y?$basic_string@DU?$char_traits@D@std@@V?$allocator@D@2@@std@@QAEAAV01@ABV01@@Z 00418c0c f   msvcprt:MSVCP71.dll
 0001:00017c12       ??0?$basic_string@DU?$char_traits@D@std@@V?$allocator@D@2@@std@@QAE@ABV01@@Z 00418c12 f   msvcprt:MSVCP71.dll
 0001:00017c18       ??0?$basic_string@DU?$char_traits@D@std@@V?$allocator@D@2@@std@@QAE@PBD@Z 00418c18 f   msvcprt:MSVCP71.dll
 0001:00017c1e       ??0?$basic_string@DU?$char_traits@D@std@@V?$allocator@D@2@@std@@QAE@ID@Z 00418c1e f   msvcprt:MSVCP71.dll
 0001:00017c24       ??Y?$basic_string@DU?$char_traits@D@std@@V?$allocator@D@2@@std@@QAEAAV01@PBD@Z 00418c24 f   msvcprt:MSVCP71.dll
 0001:00017c2a       ??Y?$basic_string@DU?$char_traits@D@std@@V?$allocator@D@2@@std@@QAEAAV01@D@Z 00418c2a f   msvcprt:MSVCP71.dll
 0001:00017c30       ??1?$basic_string@_WU?$char_traits@_W@std@@V?$allocator@_W@2@@std@@QAE@XZ 00418c30 f   msvcprt:MSVCP71.dll
 0001:00017c36       ??Y?$basic_string@_WU?$char_traits@_W@std@@V?$allocator@_W@2@@std@@QAEAAV01@ABV01@@Z 00418c36 f   msvcprt:MSVCP71.dll
 0001:00017c3c       ??0?$basic_string@_WU?$char_traits@_W@std@@V?$allocator@_W@2@@std@@QAE@ABV01@@Z 00418c3c f   msvcprt:MSVCP71.dll
 0001:00017c42       ??0?$basic_string@_WU?$char_traits@_W@std@@V?$allocator@_W@2@@std@@QAE@PB_W@Z 00418c42 f   msvcprt:MSVCP71.dll
 0001:00017c48       ??0?$basic_string@_WU?$char_traits@_W@std@@V?$allocator@_W@2@@std@@QAE@I_W@Z 00418c48 f   msvcprt:MSVCP71.dll
 0001:00017c4e       ??Y?$basic_string@_WU?$char_traits@_W@std@@V?$allocator@_W@2@@std@@QAEAAV01@PB_W@Z 00418c4e f   msvcprt:MSVCP71.dll
 0001:00017c54       ??Y?$basic_string@_WU?$char_traits@_W@std@@V?$allocator@_W@2@@std@@QAEAAV01@_W@Z 00418c54 f   msvcprt:MSVCP71.dll
 0001:00017c5a       ?_Ipfx@?$basic_istream@DU?$char_traits@D@std@@@std@@QAE_N_N@Z 00418c5a f   msvcprt:MSVCP71.dll
 0001:00017c60       ?_Ipfx@?$basic_istream@_WU?$char_traits@_W@std@@@std@@QAE_N_N@Z 00418c60 f   msvcprt:MSVCP71.dll
 0001:00017c66       ?flush@?$basic_ostream@DU?$char_traits@D@std@@@std@@QAEAAV12@XZ 00418c66 f   msvcprt:MSVCP71.dll
 0001:00017c6c       ?tie@?$basic_ios@DU?$char_traits@D@std@@@std@@QBEPAV?$basic_ostream@DU?$char_traits@D@std@@@2@XZ 00418c6c f   msvcprt:MSVCP71.dll
 0001:00017c72       ?good@ios_base@std@@QBE_NXZ 00418c72 f   msvcprt:MSVCP71.dll
 0001:00017c78       ?_Osfx@?$basic_ostream@DU?$char_traits@D@std@@@std@@QAEXXZ 00418c78 f   msvcprt:MSVCP71.dll
 0001:00017c7e       ?uncaught_exception@std@@YA_NXZ 00418c7e f   msvcprt:MSVCP71.dll
 0001:00017c84       ?flush@?$basic_ostream@_WU?$char_traits@_W@std@@@std@@QAEAAV12@XZ 00418c84 f   msvcprt:MSVCP71.dll
 0001:00017c8a       ?tie@?$basic_ios@_WU?$char_traits@_W@std@@@std@@QBEPAV?$basic_ostream@_WU?$char_traits@_W@std@@@2@XZ 00418c8a f   msvcprt:MSVCP71.dll
 0001:00017c90       ?_Osfx@?$basic_ostream@_WU?$char_traits@_W@std@@@std@@QAEXXZ 00418c90 f   msvcprt:MSVCP71.dll
 0001:00017c96       ?width@ios_base@std@@QAEHH@Z 00418c96 f   msvcprt:MSVCP71.dll
 0001:00017c9c       ?setstate@?$basic_ios@DU?$char_traits@D@std@@@std@@QAEXH_N@Z 00418c9c f   msvcprt:MSVCP71.dll
 0001:00017ca2       ?snextc@?$basic_streambuf@DU?$char_traits@D@std@@@std@@QAEHXZ 00418ca2 f   msvcprt:MSVCP71.dll
 0001:00017ca8       ?append@?$basic_string@DU?$char_traits@D@std@@V?$allocator@D@2@@std@@QAEAAV12@ID@Z 00418ca8 f   msvcprt:MSVCP71.dll
 0001:00017cae       ?is@?$ctype@D@std@@QBE_NFD@Z 00418cae f   msvcprt:MSVCP71.dll
 0001:00017cb4       ?to_char_type@?$char_traits@D@std@@SADABH@Z 00418cb4 f   msvcprt:MSVCP71.dll
 0001:00017cba       ?eq_int_type@?$char_traits@D@std@@SA_NABH0@Z 00418cba f   msvcprt:MSVCP71.dll
 0001:00017cc0       ?eof@?$char_traits@D@std@@SAHXZ 00418cc0 f   msvcprt:MSVCP71.dll
 0001:00017cc6       ?sgetc@?$basic_streambuf@DU?$char_traits@D@std@@@std@@QAEHXZ 00418cc6 f   msvcprt:MSVCP71.dll
 0001:00017ccc       ?max_size@?$basic_string@DU?$char_traits@D@std@@V?$allocator@D@2@@std@@QBEIXZ 00418ccc f   msvcprt:MSVCP71.dll
 0001:00017cd2       ?width@ios_base@std@@QBEHXZ 00418cd2 f   msvcprt:MSVCP71.dll
 0001:00017cd8       ?erase@?$basic_string@DU?$char_traits@D@std@@V?$allocator@D@2@@std@@QAEAAV12@II@Z 00418cd8 f   msvcprt:MSVCP71.dll
 0001:00017cde       ??1locale@std@@QAE@XZ      00418cde f   msvcprt:MSVCP71.dll
 0001:00017ce4       ?getloc@ios_base@std@@QBE?AVlocale@2@XZ 00418ce4 f   msvcprt:MSVCP71.dll
 0001:00017cea       ?size@?$basic_string@DU?$char_traits@D@std@@V?$allocator@D@2@@std@@QBEIXZ 00418cea f   msvcprt:MSVCP71.dll
 0001:00017cf0       ?sbumpc@?$basic_streambuf@DU?$char_traits@D@std@@@std@@QAEHXZ 00418cf0 f   msvcprt:MSVCP71.dll
 0001:00017cf6       ?to_int_type@?$char_traits@D@std@@SAHABD@Z 00418cf6 f   msvcprt:MSVCP71.dll
 0001:00017cfc       ??A?$basic_string@DU?$char_traits@D@std@@V?$allocator@D@2@@std@@QBEABDI@Z 00418cfc f   msvcprt:MSVCP71.dll
 0001:00017d02       ?sputc@?$basic_streambuf@DU?$char_traits@D@std@@@std@@QAEHD@Z 00418d02 f   msvcprt:MSVCP71.dll
 0001:00017d08       ?fill@?$basic_ios@DU?$char_traits@D@std@@@std@@QBEDXZ 00418d08 f   msvcprt:MSVCP71.dll
 0001:00017d0e       ?flags@ios_base@std@@QBEHXZ 00418d0e f   msvcprt:MSVCP71.dll
 0001:00017d14       ?setstate@?$basic_ios@_WU?$char_traits@_W@std@@@std@@QAEXH_N@Z 00418d14 f   msvcprt:MSVCP71.dll
 0001:00017d1a       ?snextc@?$basic_streambuf@_WU?$char_traits@_W@std@@@std@@QAEGXZ 00418d1a f   msvcprt:MSVCP71.dll
 0001:00017d20       ?append@?$basic_string@_WU?$char_traits@_W@std@@V?$allocator@_W@2@@std@@QAEAAV12@I_W@Z 00418d20 f   msvcprt:MSVCP71.dll
 0001:00017d26       ?is@?$ctype@_W@std@@QBE_NF_W@Z 00418d26 f   msvcprt:MSVCP71.dll
 0001:00017d2c       ?to_char_type@?$char_traits@_W@std@@SA_WABG@Z 00418d2c f   msvcprt:MSVCP71.dll
 0001:00017d32       ?eq_int_type@?$char_traits@_W@std@@SA_NABG0@Z 00418d32 f   msvcprt:MSVCP71.dll
 0001:00017d38       ?eof@?$char_traits@_W@std@@SAGXZ 00418d38 f   msvcprt:MSVCP71.dll
 0001:00017d3e       ?sgetc@?$basic_streambuf@_WU?$char_traits@_W@std@@@std@@QAEGXZ 00418d3e f   msvcprt:MSVCP71.dll
 0001:00017d44       ?max_size@?$basic_string@_WU?$char_traits@_W@std@@V?$allocator@_W@2@@std@@QBEIXZ 00418d44 f   msvcprt:MSVCP71.dll
 0001:00017d4a       ?erase@?$basic_string@_WU?$char_traits@_W@std@@V?$allocator@_W@2@@std@@QAEAAV12@II@Z 00418d4a f   msvcprt:MSVCP71.dll
 0001:00017d50       ?size@?$basic_string@_WU?$char_traits@_W@std@@V?$allocator@_W@2@@std@@QBEIXZ 00418d50 f   msvcprt:MSVCP71.dll
 0001:00017d56       ?sbumpc@?$basic_streambuf@_WU?$char_traits@_W@std@@@std@@QAEGXZ 00418d56 f   msvcprt:MSVCP71.dll
 0001:00017d5c       ?to_int_type@?$char_traits@_W@std@@SAGAB_W@Z 00418d5c f   msvcprt:MSVCP71.dll
 0001:00017d62       ??A?$basic_string@_WU?$char_traits@_W@std@@V?$allocator@_W@2@@std@@QBEAB_WI@Z 00418d62 f   msvcprt:MSVCP71.dll
 0001:00017d68       ?sputc@?$basic_streambuf@_WU?$char_traits@_W@std@@@std@@QAEG_W@Z 00418d68 f   msvcprt:MSVCP71.dll
 0001:00017d6e       ?fill@?$basic_ios@_WU?$char_traits@_W@std@@@std@@QBE_WXZ 00418d6e f   msvcprt:MSVCP71.dll
 0001:00017d74       ?widen@?$basic_ios@DU?$char_traits@D@std@@@std@@QBEDD@Z 00418d74 f   msvcprt:MSVCP71.dll
 0001:00017d7a       ?widen@?$basic_ios@_WU?$char_traits@_W@std@@@std@@QBE_WD@Z 00418d7a f   msvcprt:MSVCP71.dll
 0001:00017d80       ??1CPngImage@@UAE@XZ       00418d80 f   WHImage:WHImage.dll
 0001:00017d86       ??0CPngImage@@QAE@XZ       00418d86 f   WHImage:WHImage.dll
 0001:00017d8c       ?LoadImageW@CPngImage@@QAE_NPAUHINSTANCE__@@PB_W@Z 00418d8c f   WHImage:WHImage.dll
 0001:00017d92       ??1CPngImageEx@@UAE@XZ     00418d92 f   WHImage:WHImage.dll
 0001:00017d98       ??1CDFontEx@@QAE@XZ        00418d98 f   WHImage:WHImage.dll
 0001:00017d9e       ??1CBitImage@@UAE@XZ       00418d9e f   WHImage:WHImage.dll
 0001:00017da4       ?CreateFontW@CDFontEx@@QAEXPAVCWnd@@PB_WHH@Z 00418da4 f   WHImage:WHImage.dll
 0001:00017daa       ?LoadFromResource@CBitImage@@QAEXPAUHINSTANCE__@@I@Z 00418daa f   WHImage:WHImage.dll
 0001:00017db0       ?TransDrawImage@CBitImage@@QAE_NPAVCDC@@HHK@Z 00418db0 f   WHImage:WHImage.dll
 0001:00017db6       ??0CBitImage@@QAE@XZ       00418db6 f   WHImage:WHImage.dll
 0001:00017dbc       ??0CDFontEx@@QAE@XZ        00418dbc f   WHImage:WHImage.dll
 0001:00017dc2       ??0CPngImageEx@@QAE@XZ     00418dc2 f   WHImage:WHImage.dll
 0001:00017dc8       ?LoadFromResource@CBitImage@@QAEXPAUHINSTANCE__@@PB_W@Z 00418dc8 f   WHImage:WHImage.dll
 0001:00017dce       ?GetInstance@CGameFrameEngine@@SAPAV1@XZ 00418dce f   GameFrame:GameFrame.dll
 0001:00017dd4       ?ExitInstance@CGameFrameApp@@UAEHXZ 00418dd4 f   GameFrame:GameFrame.dll
 0001:00017dda       ?Run@CGameFrameApp@@UAEHXZ 00418dda f   GameFrame:GameFrame.dll
 0001:00017de0       ?InitInstance@CGameFrameApp@@UAEHXZ 00418de0 f   GameFrame:GameFrame.dll
 0001:00017de6       ?GetMessageMap@CGameFrameApp@@MBEPBUAFX_MSGMAP@@XZ 00418de6 f   GameFrame:GameFrame.dll
 0001:00017dec       ??0CGameFrameApp@@QAE@XZ   00418dec f   GameFrame:GameFrame.dll
 0001:00017df2       ??1CGameFrameApp@@UAE@XZ   00418df2 f   GameFrame:GameFrame.dll
 0001:00017df8       ?OnEventUserScore@CGameFrameEngine@@UAEXPAUIClientUserItem@@_N@Z 00418df8 f   GameFrame:GameFrame.dll
 0001:00017dfe       ?OnEventUserLeave@CGameFrameEngine@@UAEXPAUIClientUserItem@@_N@Z 00418dfe f   GameFrame:GameFrame.dll
 0001:00017e04       ?OnEventUserEnter@CGameFrameEngine@@UAEXPAUIClientUserItem@@_N@Z 00418e04 f   GameFrame:GameFrame.dll
 0001:00017e0a       ?OnEventInsureMessage@CGameFrameEngine@@UAE_NGPAXG@Z 00418e0a f   GameFrame:GameFrame.dll
 0001:00017e10       ?QueryInterface@CGameFrameEngine@@UAEPAXABU_GUID@@K@Z 00418e10 f   GameFrame:GameFrame.dll
 0001:00017e16       ?Release@CGameFrameEngine@@UAEXXZ 00418e16 f   GameFrame:GameFrame.dll
 0001:00017e1c       ?OnGameOptionChange@CGameFrameEngine@@UAE_NXZ 00418e1c f   GameFrame:GameFrame.dll
 0001:00017e22       ??1CGameFrameEngine@@UAE@XZ 00418e22 f   GameFrame:GameFrame.dll
 0001:00017e28       ??0CGameFrameEngine@@QAE@XZ 00418e28 f   GameFrame:GameFrame.dll
 0001:00017e2e       ?SwitchViewChairID@CGameFrameEngine@@QAEGG@Z 00418e2e f   GameFrame:GameFrame.dll
 0001:00017e34       ?SetGameStatus@CGameFrameEngine@@QAEXE@Z 00418e34 f   GameFrame:GameFrame.dll
 0001:00017e3a       ?GetGameStatus@CGameFrameEngine@@QAEEXZ 00418e3a f   GameFrame:GameFrame.dll
 0001:00017e40       ?GetMeChairID@CGameFrameEngine@@QAEGXZ 00418e40 f   GameFrame:GameFrame.dll
 0001:00017e46       ?SetGameClock@CGameFrameEngine@@QAEXGGI@Z 00418e46 f   GameFrame:GameFrame.dll
 0001:00017e4c       ?GetTableUserItem@CGameFrameEngine@@QAEPAUIClientUserItem@@G@Z 00418e4c f   GameFrame:GameFrame.dll
 0001:00017e52       ?IsLookonMode@CGameFrameEngine@@QAE_NXZ 00418e52 f   GameFrame:GameFrame.dll
 0001:00017e58       ?GetMeUserItem@CGameFrameEngine@@QAEPAUIClientUserItem@@XZ 00418e58 f   GameFrame:GameFrame.dll
 0001:00017e5e       ?KillGameClock@CGameFrameEngine@@QAEXG@Z 00418e5e f   GameFrame:GameFrame.dll
 0001:00017e64       ?SendSocketData@CGameFrameEngine@@QAE_NGPAXG@Z 00418e64 f   GameFrame:GameFrame.dll
 0001:00017e6a       ?ActiveGameFrame@CGameFrameEngine@@QAEXXZ 00418e6a f   GameFrame:GameFrame.dll
 0001:00017e70       ?PlayBackGroundSound@CGameFrameEngine@@QAE_NPAUHINSTANCE__@@PB_W@Z 00418e70 f   GameFrame:GameFrame.dll
 0001:00017e76       ?GetInstance@CGlobalUnits@@SAPAV1@XZ 00418e76 f   GameFrame:GameFrame.dll
 0001:00017e7c       ?IsAllowLookon@CGameFrameEngine@@QAE_NXZ 00418e7c f   GameFrame:GameFrame.dll
 0001:00017e82       ?PlayGameSound@CGameFrameEngine@@QAE_NPAUHINSTANCE__@@PB_W@Z 00418e82 f   GameFrame:GameFrame.dll
 0001:00017e88       ?SendUserReady@CGameFrameEngine@@QAE_NPAXG@Z 00418e88 f   GameFrame:GameFrame.dll
 0001:00017e8e       ?SendSocketData@CGameFrameEngine@@QAE_NG@Z 00418e8e f   GameFrame:GameFrame.dll
 0001:00017e94       ?StopSound@CGameFrameEngine@@QAE_NXZ 00418e94 f   GameFrame:GameFrame.dll
 0001:00017e9a       ?GetThisMessageMap@CGameFrameEngine@@KGPBUAFX_MSGMAP@@XZ 00418e9a f   GameFrame:GameFrame.dll
 0001:00017ea0       ?SendEngineMessage@CGameFrameView@@QAEJIIJ@Z 00418ea0 f   GameFrame:GameFrame.dll
 0001:00017ea6       ?OnRButtonUp@CGameFrameView@@IAEXIVCPoint@@@Z 00418ea6 f   GameFrame:GameFrame.dll
 0001:00017eac       ?OnRenderWindow@CGameFrameViewD3D@@MAEXPAVCD3DDevice@@HH@Z 00418eac f   GameFrame:GameFrame.dll
 0001:00017eb2       ?OnInitDevice@CGameFrameViewD3D@@MAEXPAVCD3DDevice@@HH@Z 00418eb2 f   GameFrame:GameFrame.dll
 0001:00017eb8       ?RenderGameView@CGameFrameViewD3D@@UAEXXZ 00418eb8 f   GameFrame:GameFrame.dll
 0001:00017ebe       ?SetClientUserItem@CGameFrameView@@UAEXGPAUIClientUserItem@@@Z 00418ebe f   GameFrame:GameFrame.dll
 0001:00017ec4       ?GetClientUserItem@CGameFrameView@@UAEPAUIClientUserItem@@G@Z 00418ec4 f   GameFrame:GameFrame.dll
 0001:00017eca       ?SetUserClock@CGameFrameView@@UAEXGG@Z 00418eca f   GameFrame:GameFrame.dll
 0001:00017ed0       ?GetUserClock@CGameFrameView@@UAEGG@Z 00418ed0 f   GameFrame:GameFrame.dll
 0001:00017ed6       ?SwitchToReadyStatus@CGameFrameView@@UAEXXZ 00418ed6 f   GameFrame:GameFrame.dll
 0001:00017edc       ?CreateGameViewWnd@CGameFrameView@@UAE_NPAVCWnd@@I@Z 00418edc f   GameFrame:GameFrame.dll
 0001:00017ee2       ?GetGameViewHwnd@CGameFrameView@@UAEPAUHWND__@@XZ 00418ee2 f   GameFrame:GameFrame.dll
 0001:00017ee8       ?QueryInterface@CGameFrameView@@UAEPAXABU_GUID@@K@Z 00418ee8 f   GameFrame:GameFrame.dll
 0001:00017eee       ?Release@CGameFrameView@@UAEXXZ 00418eee f   GameFrame:GameFrame.dll
 0001:00017ef4       ?OnEventInsureMessage@CGameFrameView@@UAE_NGPAXG@Z 00418ef4 f   GameFrame:GameFrame.dll
 0001:00017efa       ?AddGameTableMessage@CGameFrameViewD3D@@UAEXPB_WGG@Z 00418efa f   GameFrame:GameFrame.dll
 0001:00017f00       ?InvalidGameView@CGameFrameViewD3D@@UAEXHHHH@Z 00418f00 f   GameFrame:GameFrame.dll
 0001:00017f06       ?DefWindowProcW@CGameFrameViewD3D@@MAEJIIJ@Z 00418f06 f   GameFrame:GameFrame.dll
 0001:00017f0c       ??1CGameFrameViewD3D@@UAE@XZ 00418f0c f   GameFrame:GameFrame.dll
 0001:00017f12       ??0CGameFrameViewD3D@@QAE@XZ 00418f12 f   GameFrame:GameFrame.dll
 0001:00017f18       ?PlayGameSound@CGameFrameView@@QAE_NPAUHINSTANCE__@@PB_W@Z 00418f18 f   GameFrame:GameFrame.dll
 0001:00017f1e       ?StartRenderThread@CGameFrameViewD3D@@QAEXXZ 00418f1e f   GameFrame:GameFrame.dll
 0001:00017f24       ?QueryGlobalModule@CGlobalUnits@@QAEPAXGABU_GUID@@K@Z 00418f24 f   GameFrame:GameFrame.dll
 0001:00017f2a       ?DrawTextString@CGameFrameViewD3D@@QAEXPAVCD3DDevice@@PB_WVCRect@@IK@Z 00418f2a f   GameFrame:GameFrame.dll
 0001:00017f30       ?DrawUserReady@CGameFrameViewD3D@@QAEXPAVCD3DDevice@@HH@Z 00418f30 f   GameFrame:GameFrame.dll
 0001:00017f36       ?DrawNumberString@CGameFrameViewD3D@@QAEXPAVCD3DDevice@@AAVCD3DTexture@@JHH@Z 00418f36 f   GameFrame:GameFrame.dll
 0001:00017f3c       ?DrawTextString@CGameFrameViewD3D@@QAEXPAVCD3DDevice@@PB_WVCRect@@IKK@Z 00418f3c f   GameFrame:GameFrame.dll
 0001:00017f42       ?DrawUserAvatar@CGameFrameViewD3D@@QAEXPAVCD3DDevice@@HHPAUIClientUserItem@@@Z 00418f42 f   GameFrame:GameFrame.dll
 0001:00017f48       ?DrawViewImage@CGameFrameViewD3D@@QAEXPAVCD3DDevice@@AAVCD3DTexture@@E@Z 00418f48 f   GameFrame:GameFrame.dll
 0001:00017f4e       ?OnLButtonDown@CGameFrameView@@IAEXIVCPoint@@@Z 00418f4e f   GameFrame:GameFrame.dll
 0001:00017f54       ?PreTranslateMessage@CGameFrameViewD3D@@MAEHPAUtagMSG@@@Z 00418f54 f   GameFrame:GameFrame.dll
 0001:00017f5a       ?GetThisMessageMap@CGameFrameViewD3D@@KGPBUAFX_MSGMAP@@XZ 00418f5a f   GameFrame:GameFrame.dll
 0001:00017f60       ??1CGameFrameControl@@UAE@XZ 00418f60 f   GameFrame:GameFrame.dll
 0001:00017f66       ??1CDlgGameOption@@UAE@XZ  00418f66 f   GameFrame:GameFrame.dll
 0001:00017f6c       ?CreateGameOption@CDlgGameOption@@QAE_NQAPAUIUnknownEx@@G@Z 00418f6c f   GameFrame:GameFrame.dll
 0001:00017f72       ??0CDlgGameOption@@QAE@XZ  00418f72 f   GameFrame:GameFrame.dll
 0001:00017f78       ?RegisterGlobalModule@CGlobalUnits@@QAE_NGPAUIUnknownEx@@@Z 00418f78 f   GameFrame:GameFrame.dll
 0001:00017f7e       ??0CGameFrameControl@@QAE@XZ 00418f7e f   GameFrame:GameFrame.dll
 0001:00017f84       ??1CD3DSprite@@UAE@XZ      00418f84 f   GameEngine:GameEngine.dll
 0001:00017f8a       ?Destory@CD3DSprite@@QAE_NXZ 00418f8a f   GameEngine:GameEngine.dll
 0001:00017f90       ?IsNull@CD3DSprite@@QAE_NXZ 00418f90 f   GameEngine:GameEngine.dll
 0001:00017f96       ??1CLapseCount@@UAE@XZ     00418f96 f   GameEngine:GameEngine.dll
 0001:00017f9c       ?Initialization@CLapseCount@@QAEXXZ 00418f9c f   GameEngine:GameEngine.dll
 0001:00017fa2       ??0CD3DSprite@@QAE@XZ      00418fa2 f   GameEngine:GameEngine.dll
 0001:00017fa8       ?GetWidth@CD3DSprite@@QAEHXZ 00418fa8 f   GameEngine:GameEngine.dll
 0001:00017fae       ?GetHeight@CD3DSprite@@QAEHXZ 00418fae f   GameEngine:GameEngine.dll
 0001:00017fb4       ?LoadImageW@CD3DSprite@@QAE_NPAVCD3DDevice@@PAUHINSTANCE__@@PB_W2@Z 00418fb4 f   GameEngine:GameEngine.dll
 0001:00017fba       ??0CLapseCount@@QAE@XZ     00418fba f   GameEngine:GameEngine.dll
 0001:00017fc0       ?GetLapseCount@CLapseCount@@QAEKK@Z 00418fc0 f   GameEngine:GameEngine.dll
 0001:00017fc6       ?DrawImage@CD3DSprite@@QAE_NPAVCD3DDevice@@HHHHHHHH@Z 00418fc6 f   GameEngine:GameEngine.dll
 0001:00017fcc       ?DrawImage@CD3DSprite@@QAE_NPAVCD3DDevice@@HHHHHH@Z 00418fcc f   GameEngine:GameEngine.dll
 0001:00017fd2       ?ShowWindow@CVirtualWindow@@QAEX_N@Z 00418fd2 f   GameEngine:GameEngine.dll
 0001:00017fd8       ?EnableWindow@CVirtualWindow@@QAEX_N@Z 00418fd8 f   GameEngine:GameEngine.dll
 0001:00017fde       ?IsWindowVisible@CVirtualWindow@@QAE_NXZ 00418fde f   GameEngine:GameEngine.dll
 0001:00017fe4       ?IsWindowEnable@CVirtualWindow@@QAE_NXZ 00418fe4 f   GameEngine:GameEngine.dll
 0001:00017fea       ?SetButtonImage@CVirtualButton@@QAEXPAVCD3DDevice@@PB_W1PAUHINSTANCE__@@@Z 00418fea f   GameEngine:GameEngine.dll
 0001:00017ff0       ?DeleteFont@CD3DFontEx@@QAE_NXZ 00418ff0 f   GameEngine:GameEngine.dll
 0001:00017ff6       ?CreateFontW@CD3DFontEx@@QAE_NPAVCD3DDevice@@HIPB_W@Z 00418ff6 f   GameEngine:GameEngine.dll
 0001:00017ffc       ?DrawImage@CD3DTexture@@QAE_NPAVCD3DDevice@@HHHHHHHH@Z 00418ffc f   GameEngine:GameEngine.dll
 0001:00018002       ?GetWidth@CD3DTexture@@QAEHXZ 00419002 f   GameEngine:GameEngine.dll
 0001:00018008       ?GetHeight@CD3DTexture@@QAEHXZ 00419008 f   GameEngine:GameEngine.dll
 0001:0001800e       ?DrawImage@CD3DTexture@@QAE_NPAVCD3DDevice@@HHHHHH@Z 0041900e f   GameEngine:GameEngine.dll
 0001:00018014       ?DrawImage@CD3DTexture@@QAE_NPAVCD3DDevice@@HH@Z 00419014 f   GameEngine:GameEngine.dll
 0001:0001801a       ?SetWindowPos@CVirtualWindow@@QAEXHHHHI@Z 0041901a f   GameEngine:GameEngine.dll
 0001:00018020       ?GetWindowRect@CVirtualWindow@@QAEXAAVCRect@@@Z 00419020 f   GameEngine:GameEngine.dll
 0001:00018026       ??1CD3DFontEx@@QAE@XZ      00419026 f   GameEngine:GameEngine.dll
 0001:0001802c       ??1CVirtualButton@@UAE@XZ  0041902c f   GameEngine:GameEngine.dll
 0001:00018032       ??1CD3DTexture@@UAE@XZ     00419032 f   GameEngine:GameEngine.dll
 0001:00018038       ??0CD3DFontEx@@QAE@XZ      00419038 f   GameEngine:GameEngine.dll
 0001:0001803e       ??0CD3DTexture@@QAE@XZ     0041903e f   GameEngine:GameEngine.dll
 0001:00018044       ??0CVirtualButton@@QAE@XZ  00419044 f   GameEngine:GameEngine.dll
 0001:0001804a       ?Destory@CD3DTexture@@QAE_NXZ 0041904a f   GameEngine:GameEngine.dll
 0001:00018050       ?IsNull@CD3DTexture@@QAE_NXZ 00419050 f   GameEngine:GameEngine.dll
 0001:00018056       ?IsWindowActive@CVirtualWindow@@QAE_NXZ 00419056 f   GameEngine:GameEngine.dll
 0001:0001805c       ?GetClientRect@CVirtualWindow@@QAEXAAVCRect@@@Z 0041905c f   GameEngine:GameEngine.dll
 0001:00018062       ?LoadImageW@CD3DTexture@@QAE_NPAVCD3DDevice@@PAUHINSTANCE__@@PB_W2@Z 00419062 f   GameEngine:GameEngine.dll
 0001:00018068       ?ActiveWindow@CVirtualWindow@@QAE_NAAVCRect@@KIPAVCVirtualEngine@@PAV1@@Z 00419068 f   GameEngine:GameEngine.dll
 0001:0001806e       ?DrawTextW@CD3DFontEx@@QAEXPB_WPAUtagRECT@@KI@Z 0041906e f   GameEngine:GameEngine.dll
 0001:00018074       ?OnWindowPosition@CVirtualWindow@@MAEXPAVCD3DDevice@@@Z 00419074 f   GameEngine:GameEngine.dll
 0001:0001807a       ??1CVirtualWindow@@UAE@XZ  0041907a f   GameEngine:GameEngine.dll
 0001:00018080       ??0CVirtualWindow@@QAE@XZ  00419080 f   GameEngine:GameEngine.dll
 0001:00018086       ?GetVirtualEngine@CVirtualWindow@@QAEPAVCVirtualEngine@@XZ 00419086 f   GameEngine:GameEngine.dll
 0001:0001808c       ?InsertString@CSkinRichEdit@@QAE_NPB_WK@Z 0041908c f   SkinControl:SkinControl.dll
 0001:00018092       ?SetButtonImage@CSkinButton@@QAE_NIPAUHINSTANCE__@@_N1@Z 00419092 f   SkinControl:SkinControl.dll
 0001:00018098       ?GetDefaultFont@CSkinResourceManager@@QAEAAVCFont@@XZ 00419098 f   SkinControl:SkinControl.dll
 0001:0001809e       ?GetInstance@CSkinResourceManager@@SAPAV1@XZ 0041909e f   SkinControl:SkinControl.dll
 0001:000180a4       ?GetMessageMap@CSkinButton@@MBEPBUAFX_MSGMAP@@XZ 004190a4 f   SkinControl:SkinControl.dll
 0001:000180aa       ??0CSkinButton@@QAE@XZ     004190aa f   SkinControl:SkinControl.dll
 0001:000180b0       ??1CSkinButton@@UAE@XZ     004190b0 f   SkinControl:SkinControl.dll
 0001:000180b6       ?InsertUserTyphon@CRichEditMessage@@UAE_NPB_W0K@Z 004190b6 f   ShareControl:ShareControl.dll
 0001:000180bc       ?InsertUserTrumpet@CRichEditMessage@@UAE_NPB_W0K@Z 004190bc f   ShareControl:ShareControl.dll
 0001:000180c2       ?InsertWhisperChat@CRichEditMessage@@UAE_NPB_W0K_N@Z 004190c2 f   ShareControl:ShareControl.dll
 0001:000180c8       ?InsertUserChat@CRichEditMessage@@UAE_NPB_W00K@Z 004190c8 f   ShareControl:ShareControl.dll
 0001:000180ce       ?InsertExpression@CRichEditMessage@@UAE_NPB_W0@Z 004190ce f   ShareControl:ShareControl.dll
 0001:000180d4       ?InsertExpression@CRichEditMessage@@UAE_NPB_W0_N@Z 004190d4 f   ShareControl:ShareControl.dll
 0001:000180da       ?InsertExpression@CRichEditMessage@@UAE_NPB_W00@Z 004190da f   ShareControl:ShareControl.dll
 0001:000180e0       ?InsertCustomString@CRichEditMessage@@UAE_NPB_WK@Z 004190e0 f   ShareControl:ShareControl.dll
 0001:000180e6       ?InsertCustomString@CRichEditMessage@@UAE_NPB_WKK@Z 004190e6 f   ShareControl:ShareControl.dll
 0001:000180ec       ?InsertAfficheString@CRichEditMessage@@UAE_NPB_W@Z 004190ec f   ShareControl:ShareControl.dll
 0001:000180f2       ?InsertPromptString@CRichEditMessage@@UAE_NPB_W@Z 004190f2 f   ShareControl:ShareControl.dll
 0001:000180f8       ?InsertSystemString@CRichEditMessage@@UAE_NPB_W@Z 004190f8 f   ShareControl:ShareControl.dll
 0001:000180fe       ?InsertNormalString@CRichEditMessage@@UAE_NPB_W@Z 004190fe f   ShareControl:ShareControl.dll
 0001:00018104       ?InsertUserOffLine@CRichEditMessage@@UAE_NPB_W@Z 00419104 f   ShareControl:ShareControl.dll
 0001:0001810a       ?InsertUserLeave@CRichEditMessage@@UAE_NPB_W@Z 0041910a f   ShareControl:ShareControl.dll
 0001:00018110       ?InsertUserEnter@CRichEditMessage@@UAE_NPB_W@Z 00419110 f   ShareControl:ShareControl.dll
 0001:00018116       ?QueryInterface@CRichEditMessage@@UAEPAXABU_GUID@@K@Z 00419116 f   ShareControl:ShareControl.dll
 0001:0001811c       ?Release@CRichEditMessage@@UAEXXZ 0041911c f   ShareControl:ShareControl.dll
 0001:00018122       ?InsertWhisperChat@CRichEditMessage@@UAE_NPB_W0K_NABU_SYSTEMTIME@@@Z 00419122 f   ShareControl:ShareControl.dll
 0001:00018128       ?PreSubclassWindow@CRichEditMessage@@MAEXXZ 00419128 f   ShareControl:ShareControl.dll
 0001:0001812e       ?GetMessageMap@CRichEditMessage@@MBEPBUAFX_MSGMAP@@XZ 0041912e f   ShareControl:ShareControl.dll
 0001:00018134       ??0CRichEditMessage@@QAE@XZ 00419134 f   ShareControl:ShareControl.dll
 0001:0001813a       ??1CRichEditMessage@@UAE@XZ 0041913a f   ShareControl:ShareControl.dll
 0001:00018140       ?InsertUserChat@CRichEditMessage@@UAE_NPB_W0K@Z 00419140 f   ShareControl:ShareControl.dll
 0001:00018146       ??1CInformation@@UAE@XZ    00419146 f   ShareControl:ShareControl.dll
 0001:0001814c       ?ShowMessageBox@CInformation@@QAEHPB_WII@Z 0041914c f   ShareControl:ShareControl.dll
 0001:00018152       ??0CInformation@@QAE@PAVCWnd@@@Z 00419152 f   ShareControl:ShareControl.dll
 0001:00018158       ?SetExpressionManager@CRichEditMessage@@QAE_NPAVCExpressionManager@@K@Z 00419158 f   ShareControl:ShareControl.dll
 0001:0001815e       ?GetInstance@CExpressionManager@@SAPAV1@XZ 0041915e f   ShareControl:ShareControl.dll
 0001:00018164       _wWinMain@16               00419164 f   mfcs71u:appmodul.obj
 0001:00018169       ?AfxInitialize@@YGHHK@Z    00419169 f   mfcs71u:appmodul.obj
 0001:00018186       _realloc                   00419186 f   msvcrt:MSVCR71.dll
 0001:0001818c       _GetVersionExA@4           0041918c f   kernel32:KERNEL32.dll
 0001:00018192       _EnterCriticalSection@4    00419192 f   kernel32:KERNEL32.dll
 0001:00018198       _LeaveCriticalSection@4    00419198 f   kernel32:KERNEL32.dll
 0001:0001819e       _UnregisterClassA@8        0041919e f   user32:USER32.dll
 0001:000181a4       ?AfxWinMain@@YGHPAUHINSTANCE__@@0PA_WH@Z 004191a4 f   mfc71u:MFC71U.DLL
 0002:00000000       __imp__FlatSB_EnableScrollBar@12 0041b000     comctl32:COMCTL32.dll
 0002:00000004       __imp__InitializeFlatSB@4  0041b004     comctl32:COMCTL32.dll
 0002:00000008       \177COMCTL32_NULL_THUNK_DATA 0041b008     comctl32:COMCTL32.dll
 0002:0000000c       __imp__RectVisible@8       0041b00c     gdi32:GDI32.dll
 0002:00000010       __imp__TextOutW@20         0041b010     gdi32:GDI32.dll
 0002:00000014       __imp__ExtTextOutW@32      0041b014     gdi32:GDI32.dll
 0002:00000018       __imp__PtVisible@12        0041b018     gdi32:GDI32.dll
 0002:0000001c       __imp__CreateCompatibleBitmap@12 0041b01c     gdi32:GDI32.dll
 0002:00000020       __imp__CreateCompatibleDC@4 0041b020     gdi32:GDI32.dll
 0002:00000024       __imp__StretchBlt@44       0041b024     gdi32:GDI32.dll
 0002:00000028       __imp__Escape@20           0041b028     gdi32:GDI32.dll
 0002:0000002c       __imp__CreateFontIndirectW@4 0041b02c     gdi32:GDI32.dll
 0002:00000030       __imp__SelectObject@8      0041b030     gdi32:GDI32.dll
 0002:00000034       __imp__CreateSolidBrush@4  0041b034     gdi32:GDI32.dll
 0002:00000038       __imp__GetObjectW@12       0041b038     gdi32:GDI32.dll
 0002:0000003c       __imp__BitBlt@36           0041b03c     gdi32:GDI32.dll
 0002:00000040       \177GDI32_NULL_THUNK_DATA  0041b040     gdi32:GDI32.dll
 0002:00000044       __imp_??1CD3DFontEx@@QAE@XZ 0041b044     GameEngine:GameEngine.dll
 0002:00000048       __imp_?GetWindowRect@CVirtualWindow@@QAEXAAVCRect@@@Z 0041b048     GameEngine:GameEngine.dll
 0002:0000004c       __imp_?SetWindowPos@CVirtualWindow@@QAEXHHHHI@Z 0041b04c     GameEngine:GameEngine.dll
 0002:00000050       __imp_?DrawImage@CD3DTexture@@QAE_NPAVCD3DDevice@@HH@Z 0041b050     GameEngine:GameEngine.dll
 0002:00000054       __imp_?DrawImage@CD3DTexture@@QAE_NPAVCD3DDevice@@HHHHHH@Z 0041b054     GameEngine:GameEngine.dll
 0002:00000058       __imp_?GetHeight@CD3DTexture@@QAEHXZ 0041b058     GameEngine:GameEngine.dll
 0002:0000005c       __imp_?GetWidth@CD3DTexture@@QAEHXZ 0041b05c     GameEngine:GameEngine.dll
 0002:00000060       __imp_?DrawImage@CD3DTexture@@QAE_NPAVCD3DDevice@@HHHHHHHH@Z 0041b060     GameEngine:GameEngine.dll
 0002:00000064       __imp_?CreateFontW@CD3DFontEx@@QAE_NPAVCD3DDevice@@HIPB_W@Z 0041b064     GameEngine:GameEngine.dll
 0002:00000068       __imp_?DeleteFont@CD3DFontEx@@QAE_NXZ 0041b068     GameEngine:GameEngine.dll
 0002:0000006c       __imp_?SetButtonImage@CVirtualButton@@QAEXPAVCD3DDevice@@PB_W1PAUHINSTANCE__@@@Z 0041b06c     GameEngine:GameEngine.dll
 0002:00000070       __imp_?IsWindowEnable@CVirtualWindow@@QAE_NXZ 0041b070     GameEngine:GameEngine.dll
 0002:00000074       __imp_?IsWindowVisible@CVirtualWindow@@QAE_NXZ 0041b074     GameEngine:GameEngine.dll
 0002:00000078       __imp_?EnableWindow@CVirtualWindow@@QAEX_N@Z 0041b078     GameEngine:GameEngine.dll
 0002:0000007c       __imp_??1CVirtualButton@@UAE@XZ 0041b07c     GameEngine:GameEngine.dll
 0002:00000080       __imp_?DrawImage@CD3DSprite@@QAE_NPAVCD3DDevice@@HHHHHH@Z 0041b080     GameEngine:GameEngine.dll
 0002:00000084       __imp_?DrawImage@CD3DSprite@@QAE_NPAVCD3DDevice@@HHHHHHHH@Z 0041b084     GameEngine:GameEngine.dll
 0002:00000088       __imp_?GetLapseCount@CLapseCount@@QAEKK@Z 0041b088     GameEngine:GameEngine.dll
 0002:0000008c       __imp_??0CLapseCount@@QAE@XZ 0041b08c     GameEngine:GameEngine.dll
 0002:00000090       __imp_?LoadImageW@CD3DSprite@@QAE_NPAVCD3DDevice@@PAUHINSTANCE__@@PB_W2@Z 0041b090     GameEngine:GameEngine.dll
 0002:00000094       __imp_?GetHeight@CD3DSprite@@QAEHXZ 0041b094     GameEngine:GameEngine.dll
 0002:00000098       __imp_?GetWidth@CD3DSprite@@QAEHXZ 0041b098     GameEngine:GameEngine.dll
 0002:0000009c       __imp_??0CD3DSprite@@QAE@XZ 0041b09c     GameEngine:GameEngine.dll
 0002:000000a0       __imp_?Initialization@CLapseCount@@QAEXXZ 0041b0a0     GameEngine:GameEngine.dll
 0002:000000a4       __imp_??1CLapseCount@@UAE@XZ 0041b0a4     GameEngine:GameEngine.dll
 0002:000000a8       __imp_?IsNull@CD3DSprite@@QAE_NXZ 0041b0a8     GameEngine:GameEngine.dll
 0002:000000ac       __imp_?Destory@CD3DSprite@@QAE_NXZ 0041b0ac     GameEngine:GameEngine.dll
 0002:000000b0       __imp_??1CD3DSprite@@UAE@XZ 0041b0b0     GameEngine:GameEngine.dll
 0002:000000b4       __imp_??1CD3DTexture@@UAE@XZ 0041b0b4     GameEngine:GameEngine.dll
 0002:000000b8       __imp_??0CD3DFontEx@@QAE@XZ 0041b0b8     GameEngine:GameEngine.dll
 0002:000000bc       __imp_??0CD3DTexture@@QAE@XZ 0041b0bc     GameEngine:GameEngine.dll
 0002:000000c0       __imp_??0CVirtualButton@@QAE@XZ 0041b0c0     GameEngine:GameEngine.dll
 0002:000000c4       __imp_?Destory@CD3DTexture@@QAE_NXZ 0041b0c4     GameEngine:GameEngine.dll
 0002:000000c8       __imp_?IsNull@CD3DTexture@@QAE_NXZ 0041b0c8     GameEngine:GameEngine.dll
 0002:000000cc       __imp_?IsWindowActive@CVirtualWindow@@QAE_NXZ 0041b0cc     GameEngine:GameEngine.dll
 0002:000000d0       __imp_?GetClientRect@CVirtualWindow@@QAEXAAVCRect@@@Z 0041b0d0     GameEngine:GameEngine.dll
 0002:000000d4       __imp_?LoadImageW@CD3DTexture@@QAE_NPAVCD3DDevice@@PAUHINSTANCE__@@PB_W2@Z 0041b0d4     GameEngine:GameEngine.dll
 0002:000000d8       __imp_?ActiveWindow@CVirtualWindow@@QAE_NAAVCRect@@KIPAVCVirtualEngine@@PAV1@@Z 0041b0d8     GameEngine:GameEngine.dll
 0002:000000dc       __imp_?DrawTextW@CD3DFontEx@@QAEXPB_WPAUtagRECT@@KI@Z 0041b0dc     GameEngine:GameEngine.dll
 0002:000000e0       __imp_?OnWindowPosition@CVirtualWindow@@MAEXPAVCD3DDevice@@@Z 0041b0e0     GameEngine:GameEngine.dll
 0002:000000e4       __imp_??1CVirtualWindow@@UAE@XZ 0041b0e4     GameEngine:GameEngine.dll
 0002:000000e8       __imp_??0CVirtualWindow@@QAE@XZ 0041b0e8     GameEngine:GameEngine.dll
 0002:000000ec       __imp_?GetVirtualEngine@CVirtualWindow@@QAEPAVCVirtualEngine@@XZ 0041b0ec     GameEngine:GameEngine.dll
 0002:000000f0       __imp_?ShowWindow@CVirtualWindow@@QAEX_N@Z 0041b0f0     GameEngine:GameEngine.dll
 0002:000000f4       \177GameEngine_NULL_THUNK_DATA 0041b0f4     GameEngine:GameEngine.dll
 0002:000000f8       __imp_?InvalidGameView@CGameFrameViewD3D@@UAEXHHHH@Z 0041b0f8     GameFrame:GameFrame.dll
 0002:000000fc       __imp_?AddGameTableMessage@CGameFrameViewD3D@@UAEXPB_WGG@Z 0041b0fc     GameFrame:GameFrame.dll
 0002:00000100       __imp_?OnEventInsureMessage@CGameFrameView@@UAE_NGPAXG@Z 0041b100     GameFrame:GameFrame.dll
 0002:00000104       __imp_?Release@CGameFrameView@@UAEXXZ 0041b104     GameFrame:GameFrame.dll
 0002:00000108       __imp_?QueryInterface@CGameFrameView@@UAEPAXABU_GUID@@K@Z 0041b108     GameFrame:GameFrame.dll
 0002:0000010c       __imp_?GetGameViewHwnd@CGameFrameView@@UAEPAUHWND__@@XZ 0041b10c     GameFrame:GameFrame.dll
 0002:00000110       __imp_?DefWindowProcW@CGameFrameViewD3D@@MAEJIIJ@Z 0041b110     GameFrame:GameFrame.dll
 0002:00000114       __imp_??1CGameFrameViewD3D@@UAE@XZ 0041b114     GameFrame:GameFrame.dll
 0002:00000118       __imp_??0CGameFrameViewD3D@@QAE@XZ 0041b118     GameFrame:GameFrame.dll
 0002:0000011c       __imp_?PlayGameSound@CGameFrameView@@QAE_NPAUHINSTANCE__@@PB_W@Z 0041b11c     GameFrame:GameFrame.dll
 0002:00000120       __imp_?StartRenderThread@CGameFrameViewD3D@@QAEXXZ 0041b120     GameFrame:GameFrame.dll
 0002:00000124       __imp_?QueryGlobalModule@CGlobalUnits@@QAEPAXGABU_GUID@@K@Z 0041b124     GameFrame:GameFrame.dll
 0002:00000128       __imp_?DrawTextString@CGameFrameViewD3D@@QAEXPAVCD3DDevice@@PB_WVCRect@@IK@Z 0041b128     GameFrame:GameFrame.dll
 0002:0000012c       __imp_?DrawUserReady@CGameFrameViewD3D@@QAEXPAVCD3DDevice@@HH@Z 0041b12c     GameFrame:GameFrame.dll
 0002:00000130       __imp_?DrawNumberString@CGameFrameViewD3D@@QAEXPAVCD3DDevice@@AAVCD3DTexture@@JHH@Z 0041b130     GameFrame:GameFrame.dll
 0002:00000134       __imp_?DrawTextString@CGameFrameViewD3D@@QAEXPAVCD3DDevice@@PB_WVCRect@@IKK@Z 0041b134     GameFrame:GameFrame.dll
 0002:00000138       __imp_?DrawUserAvatar@CGameFrameViewD3D@@QAEXPAVCD3DDevice@@HHPAUIClientUserItem@@@Z 0041b138     GameFrame:GameFrame.dll
 0002:0000013c       __imp_?DrawViewImage@CGameFrameViewD3D@@QAEXPAVCD3DDevice@@AAVCD3DTexture@@E@Z 0041b13c     GameFrame:GameFrame.dll
 0002:00000140       __imp_?OnLButtonDown@CGameFrameView@@IAEXIVCPoint@@@Z 0041b140     GameFrame:GameFrame.dll
 0002:00000144       __imp_?PreTranslateMessage@CGameFrameViewD3D@@MAEHPAUtagMSG@@@Z 0041b144     GameFrame:GameFrame.dll
 0002:00000148       __imp_?GetThisMessageMap@CGameFrameViewD3D@@KGPBUAFX_MSGMAP@@XZ 0041b148     GameFrame:GameFrame.dll
 0002:0000014c       __imp_??1CGameFrameControl@@UAE@XZ 0041b14c     GameFrame:GameFrame.dll
 0002:00000150       __imp_??1CDlgGameOption@@UAE@XZ 0041b150     GameFrame:GameFrame.dll
 0002:00000154       __imp_?CreateGameOption@CDlgGameOption@@QAE_NQAPAUIUnknownEx@@G@Z 0041b154     GameFrame:GameFrame.dll
 0002:00000158       __imp_??0CDlgGameOption@@QAE@XZ 0041b158     GameFrame:GameFrame.dll
 0002:0000015c       __imp_?RegisterGlobalModule@CGlobalUnits@@QAE_NGPAUIUnknownEx@@@Z 0041b15c     GameFrame:GameFrame.dll
 0002:00000160       __imp_??0CGameFrameControl@@QAE@XZ 0041b160     GameFrame:GameFrame.dll
 0002:00000164       __imp_?CreateGameViewWnd@CGameFrameView@@UAE_NPAVCWnd@@I@Z 0041b164     GameFrame:GameFrame.dll
 0002:00000168       __imp_?SwitchToReadyStatus@CGameFrameView@@UAEXXZ 0041b168     GameFrame:GameFrame.dll
 0002:0000016c       __imp_?GetUserClock@CGameFrameView@@UAEGG@Z 0041b16c     GameFrame:GameFrame.dll
 0002:00000170       __imp_?SetUserClock@CGameFrameView@@UAEXGG@Z 0041b170     GameFrame:GameFrame.dll
 0002:00000174       __imp_?GetClientUserItem@CGameFrameView@@UAEPAUIClientUserItem@@G@Z 0041b174     GameFrame:GameFrame.dll
 0002:00000178       __imp_?SetClientUserItem@CGameFrameView@@UAEXGPAUIClientUserItem@@@Z 0041b178     GameFrame:GameFrame.dll
 0002:0000017c       __imp_?RenderGameView@CGameFrameViewD3D@@UAEXXZ 0041b17c     GameFrame:GameFrame.dll
 0002:00000180       __imp_?OnInitDevice@CGameFrameViewD3D@@MAEXPAVCD3DDevice@@HH@Z 0041b180     GameFrame:GameFrame.dll
 0002:00000184       __imp_?OnRenderWindow@CGameFrameViewD3D@@MAEXPAVCD3DDevice@@HH@Z 0041b184     GameFrame:GameFrame.dll
 0002:00000188       __imp_?OnRButtonUp@CGameFrameView@@IAEXIVCPoint@@@Z 0041b188     GameFrame:GameFrame.dll
 0002:0000018c       __imp_?SendEngineMessage@CGameFrameView@@QAEJIIJ@Z 0041b18c     GameFrame:GameFrame.dll
 0002:00000190       __imp_?GetThisMessageMap@CGameFrameEngine@@KGPBUAFX_MSGMAP@@XZ 0041b190     GameFrame:GameFrame.dll
 0002:00000194       __imp_?StopSound@CGameFrameEngine@@QAE_NXZ 0041b194     GameFrame:GameFrame.dll
 0002:00000198       __imp_?SendSocketData@CGameFrameEngine@@QAE_NG@Z 0041b198     GameFrame:GameFrame.dll
 0002:0000019c       __imp_?SendUserReady@CGameFrameEngine@@QAE_NPAXG@Z 0041b19c     GameFrame:GameFrame.dll
 0002:000001a0       __imp_?PlayGameSound@CGameFrameEngine@@QAE_NPAUHINSTANCE__@@PB_W@Z 0041b1a0     GameFrame:GameFrame.dll
 0002:000001a4       __imp_?IsAllowLookon@CGameFrameEngine@@QAE_NXZ 0041b1a4     GameFrame:GameFrame.dll
 0002:000001a8       __imp_?GetInstance@CGlobalUnits@@SAPAV1@XZ 0041b1a8     GameFrame:GameFrame.dll
 0002:000001ac       __imp_?PlayBackGroundSound@CGameFrameEngine@@QAE_NPAUHINSTANCE__@@PB_W@Z 0041b1ac     GameFrame:GameFrame.dll
 0002:000001b0       __imp_?ActiveGameFrame@CGameFrameEngine@@QAEXXZ 0041b1b0     GameFrame:GameFrame.dll
 0002:000001b4       __imp_?SendSocketData@CGameFrameEngine@@QAE_NGPAXG@Z 0041b1b4     GameFrame:GameFrame.dll
 0002:000001b8       __imp_?KillGameClock@CGameFrameEngine@@QAEXG@Z 0041b1b8     GameFrame:GameFrame.dll
 0002:000001bc       __imp_?GetMeUserItem@CGameFrameEngine@@QAEPAUIClientUserItem@@XZ 0041b1bc     GameFrame:GameFrame.dll
 0002:000001c0       __imp_?IsLookonMode@CGameFrameEngine@@QAE_NXZ 0041b1c0     GameFrame:GameFrame.dll
 0002:000001c4       __imp_?GetTableUserItem@CGameFrameEngine@@QAEPAUIClientUserItem@@G@Z 0041b1c4     GameFrame:GameFrame.dll
 0002:000001c8       __imp_?SetGameClock@CGameFrameEngine@@QAEXGGI@Z 0041b1c8     GameFrame:GameFrame.dll
 0002:000001cc       __imp_?GetMeChairID@CGameFrameEngine@@QAEGXZ 0041b1cc     GameFrame:GameFrame.dll
 0002:000001d0       __imp_?GetGameStatus@CGameFrameEngine@@QAEEXZ 0041b1d0     GameFrame:GameFrame.dll
 0002:000001d4       __imp_?SetGameStatus@CGameFrameEngine@@QAEXE@Z 0041b1d4     GameFrame:GameFrame.dll
 0002:000001d8       __imp_?SwitchViewChairID@CGameFrameEngine@@QAEGG@Z 0041b1d8     GameFrame:GameFrame.dll
 0002:000001dc       __imp_??0CGameFrameEngine@@QAE@XZ 0041b1dc     GameFrame:GameFrame.dll
 0002:000001e0       __imp_??1CGameFrameEngine@@UAE@XZ 0041b1e0     GameFrame:GameFrame.dll
 0002:000001e4       __imp_?OnGameOptionChange@CGameFrameEngine@@UAE_NXZ 0041b1e4     GameFrame:GameFrame.dll
 0002:000001e8       __imp_?Release@CGameFrameEngine@@UAEXXZ 0041b1e8     GameFrame:GameFrame.dll
 0002:000001ec       __imp_?QueryInterface@CGameFrameEngine@@UAEPAXABU_GUID@@K@Z 0041b1ec     GameFrame:GameFrame.dll
 0002:000001f0       __imp_?OnEventInsureMessage@CGameFrameEngine@@UAE_NGPAXG@Z 0041b1f0     GameFrame:GameFrame.dll
 0002:000001f4       __imp_?OnEventUserEnter@CGameFrameEngine@@UAEXPAUIClientUserItem@@_N@Z 0041b1f4     GameFrame:GameFrame.dll
 0002:000001f8       __imp_?OnEventUserLeave@CGameFrameEngine@@UAEXPAUIClientUserItem@@_N@Z 0041b1f8     GameFrame:GameFrame.dll
 0002:000001fc       __imp_?OnEventUserScore@CGameFrameEngine@@UAEXPAUIClientUserItem@@_N@Z 0041b1fc     GameFrame:GameFrame.dll
 0002:00000200       __imp_??1CGameFrameApp@@UAE@XZ 0041b200     GameFrame:GameFrame.dll
 0002:00000204       __imp_??0CGameFrameApp@@QAE@XZ 0041b204     GameFrame:GameFrame.dll
 0002:00000208       __imp_?GetMessageMap@CGameFrameApp@@MBEPBUAFX_MSGMAP@@XZ 0041b208     GameFrame:GameFrame.dll
 0002:0000020c       __imp_?InitInstance@CGameFrameApp@@UAEHXZ 0041b20c     GameFrame:GameFrame.dll
 0002:00000210       __imp_?Run@CGameFrameApp@@UAEHXZ 0041b210     GameFrame:GameFrame.dll
 0002:00000214       __imp_?GetInstance@CGameFrameEngine@@SAPAV1@XZ 0041b214     GameFrame:GameFrame.dll
 0002:00000218       __imp_?ExitInstance@CGameFrameApp@@UAEHXZ 0041b218     GameFrame:GameFrame.dll
 0002:0000021c       \177GameFrame_NULL_THUNK_DATA 0041b21c     GameFrame:GameFrame.dll
 0002:00000220       __imp__GetCurrentProcessId@0 0041b220     kernel32:KERNEL32.dll
 0002:00000224       __imp__GetCurrentThreadId@0 0041b224     kernel32:KERNEL32.dll
 0002:00000228       __imp__GetTickCount@0      0041b228     kernel32:KERNEL32.dll
 0002:0000022c       __imp__QueryPerformanceCounter@4 0041b22c     kernel32:KERNEL32.dll
 0002:00000230       __imp__ExitProcess@4       0041b230     kernel32:KERNEL32.dll
 0002:00000234       __imp__GetStartupInfoW@4   0041b234     kernel32:KERNEL32.dll
 0002:00000238       __imp__GetModuleHandleA@4  0041b238     kernel32:KERNEL32.dll
 0002:0000023c       __imp__DeleteCriticalSection@4 0041b23c     kernel32:KERNEL32.dll
 0002:00000240       __imp__InitializeCriticalSection@4 0041b240     kernel32:KERNEL32.dll
 0002:00000244       __imp__RaiseException@16   0041b244     kernel32:KERNEL32.dll
 0002:00000248       __imp__GetVersionExW@4     0041b248     kernel32:KERNEL32.dll
 0002:0000024c       __imp__GetThreadLocale@0   0041b24c     kernel32:KERNEL32.dll
 0002:00000250       __imp__GetLocaleInfoA@16   0041b250     kernel32:KERNEL32.dll
 0002:00000254       __imp__GetACP@0            0041b254     kernel32:KERNEL32.dll
 0002:00000258       __imp__InterlockedExchange@8 0041b258     kernel32:KERNEL32.dll
 0002:0000025c       __imp__GetModuleHandleW@4  0041b25c     kernel32:KERNEL32.dll
 0002:00000260       __imp__lstrlenW@4          0041b260     kernel32:KERNEL32.dll
 0002:00000264       __imp__lstrcpynW@12        0041b264     kernel32:KERNEL32.dll
 0002:00000268       __imp__GetVersionExA@4     0041b268     kernel32:KERNEL32.dll
 0002:0000026c       __imp__EnterCriticalSection@4 0041b26c     kernel32:KERNEL32.dll
 0002:00000270       __imp__LeaveCriticalSection@4 0041b270     kernel32:KERNEL32.dll
 0002:00000274       __imp__GetSystemTimeAsFileTime@4 0041b274     kernel32:KERNEL32.dll
 0002:00000278       \177KERNEL32_NULL_THUNK_DATA 0041b278     kernel32:KERNEL32.dll
 0002:0000027c       __imp_?GetMessageString@CFrameWnd@@UBEXIAAV?$CStringT@_WV?$StrTraitMFC_DLL@_WV?$ChTraitsCRT@_W@ATL@@@@@ATL@@@Z 0041b27c     mfc71u:MFC71U.DLL
 0002:00000280       __imp_?GetActiveFrame@CFrameWnd@@UAEPAV1@XZ 0041b280     mfc71u:MFC71U.DLL
 0002:00000284       __imp_?GetActiveDocument@CFrameWnd@@UAEPAVCDocument@@XZ 0041b284     mfc71u:MFC71U.DLL
 0002:00000288       __imp_?LoadFrame@CFrameWnd@@UAEHIKPAVCWnd@@PAUCCreateContext@@@Z 0041b288     mfc71u:MFC71U.DLL
 0002:0000028c       __imp_?Create@CFrameWnd@@UAEHPB_W0KABUtagRECT@@PAVCWnd@@0KPAUCCreateContext@@@Z 0041b28c     mfc71u:MFC71U.DLL
 0002:00000290       __imp_?IsFrameWnd@CFrameWnd@@UBEHXZ 0041b290     mfc71u:MFC71U.DLL
 0002:00000294       __imp_?PostNcDestroy@CFrameWnd@@MAEXXZ 0041b294     mfc71u:MFC71U.DLL
 0002:00000298       __imp_?EndModalState@CFrameWnd@@UAEXXZ 0041b298     mfc71u:MFC71U.DLL
 0002:0000029c       __imp_?BeginModalState@CFrameWnd@@UAEXXZ 0041b29c     mfc71u:MFC71U.DLL
 0002:000002a0       __imp_?PreCreateWindow@CFrameWnd@@MAEHAAUtagCREATESTRUCTW@@@Z 0041b2a0     mfc71u:MFC71U.DLL
 0002:000002a4       __imp_?OnCmdMsg@CFrameWnd@@UAEHIHPAXPAUAFX_CMDHANDLERINFO@@@Z 0041b2a4     mfc71u:MFC71U.DLL
 0002:000002a8       __imp_?GetRuntimeClass@CFrameWnd@@UBEPAUCRuntimeClass@@XZ 0041b2a8     mfc71u:MFC71U.DLL
 0002:000002ac       __imp_??1CFrameWnd@@UAE@XZ 0041b2ac     mfc71u:MFC71U.DLL
 0002:000002b0       __imp_?PreTranslateMessage@CFrameWnd@@UAEHPAUtagMSG@@@Z 0041b2b0     mfc71u:MFC71U.DLL
 0002:000002b4       __imp_?OnSettingChange@CWnd@@IAEXIPB_W@Z 0041b2b4     mfc71u:MFC71U.DLL
 0002:000002b8       __imp_?OnCommand@CFrameWnd@@MAEHIJ@Z 0041b2b8     mfc71u:MFC71U.DLL
 0002:000002bc       __imp_?OnSize@CFrameWnd@@IAEXIHH@Z 0041b2bc     mfc71u:MFC71U.DLL
 0002:000002c0       __imp_?SetWindowPos@CWnd@@QAEHPBV1@HHHHI@Z 0041b2c0     mfc71u:MFC71U.DLL
 0002:000002c4       __imp_?ModifyStyleEx@CWnd@@QAEHKKI@Z 0041b2c4     mfc71u:MFC71U.DLL
 0002:000002c8       __imp_?OnCreate@CFrameWnd@@IAEHPAUtagCREATESTRUCTW@@@Z 0041b2c8     mfc71u:MFC71U.DLL
 0002:000002cc       __imp_??1CPaintDC@@UAE@XZ  0041b2cc     mfc71u:MFC71U.DLL
 0002:000002d0       __imp_?SetTextColor@CDC@@UAEKK@Z 0041b2d0     mfc71u:MFC71U.DLL
 0002:000002d4       __imp_??0CPaintDC@@QAE@PAVCWnd@@@Z 0041b2d4     mfc71u:MFC71U.DLL
 0002:000002d8       __imp_??0CFrameWnd@@QAE@XZ 0041b2d8     mfc71u:MFC71U.DLL
 0002:000002dc       __imp_?Create@CButton@@UAEHPB_WKABUtagRECT@@PAVCWnd@@I@Z 0041b2dc     mfc71u:MFC71U.DLL
 0002:000002e0       __imp_?OnChildNotify@CButton@@MAEHIIJPAJ@Z 0041b2e0     mfc71u:MFC71U.DLL
 0002:000002e4       __imp_?GetRuntimeClass@CButton@@UBEPAUCRuntimeClass@@XZ 0041b2e4     mfc71u:MFC71U.DLL
 0002:000002e8       __imp_?GetRuntimeClass@CBitmap@@UBEPAUCRuntimeClass@@XZ 0041b2e8     mfc71u:MFC71U.DLL
 0002:000002ec       __imp_?AfxFindResourceHandle@@YGPAUHINSTANCE__@@PB_W0@Z 0041b2ec     mfc71u:MFC71U.DLL
 0002:000002f0       __imp_?Attach@CDC@@QAEHPAUHDC__@@@Z 0041b2f0     mfc71u:MFC71U.DLL
 0002:000002f4       __imp_?SelectGdiObject@CDC@@KGPAVCGdiObject@@PAUHDC__@@PAX@Z 0041b2f4     mfc71u:MFC71U.DLL
 0002:000002f8       __imp_??1CDC@@UAE@XZ       0041b2f8     mfc71u:MFC71U.DLL
 0002:000002fc       __imp_?OnDestroy@CWnd@@IAEXXZ 0041b2fc     mfc71u:MFC71U.DLL
 0002:00000300       __imp_??0CDC@@QAE@XZ       0041b300     mfc71u:MFC71U.DLL
 0002:00000304       __imp_?DrawItem@CStatic@@UAEXPAUtagDRAWITEMSTRUCT@@@Z 0041b304     mfc71u:MFC71U.DLL
 0002:00000308       __imp_?Create@CStatic@@UAEHPB_WKABUtagRECT@@PAVCWnd@@I@Z 0041b308     mfc71u:MFC71U.DLL
 0002:0000030c       __imp_?OnChildNotify@CStatic@@MAEHIIJPAJ@Z 0041b30c     mfc71u:MFC71U.DLL
 0002:00000310       __imp_?GetRuntimeClass@CStatic@@UBEPAUCRuntimeClass@@XZ 0041b310     mfc71u:MFC71U.DLL
 0002:00000314       __imp_??1CStatic@@UAE@XZ   0041b314     mfc71u:MFC71U.DLL
 0002:00000318       __imp_?GetClipBox@CDC@@UBEHPAUtagRECT@@@Z 0041b318     mfc71u:MFC71U.DLL
 0002:0000031c       __imp_?ScaleWindowExt@CDC@@UAE?AVCSize@@HHHH@Z 0041b31c     mfc71u:MFC71U.DLL
 0002:00000320       __imp_?SetWindowExt@CDC@@UAE?AVCSize@@HH@Z 0041b320     mfc71u:MFC71U.DLL
 0002:00000324       __imp_?ScaleViewportExt@CDC@@UAE?AVCSize@@HHHH@Z 0041b324     mfc71u:MFC71U.DLL
 0002:00000328       __imp_?SetViewportExt@CDC@@UAE?AVCSize@@HH@Z 0041b328     mfc71u:MFC71U.DLL
 0002:0000032c       __imp_?OffsetViewportOrg@CDC@@UAE?AVCPoint@@HH@Z 0041b32c     mfc71u:MFC71U.DLL
 0002:00000330       __imp_?SetViewportOrg@CDC@@UAE?AVCPoint@@HH@Z 0041b330     mfc71u:MFC71U.DLL
 0002:00000334       __imp_?SetMapMode@CDC@@UAEHH@Z 0041b334     mfc71u:MFC71U.DLL
 0002:00000338       __imp_?SetBkColor@CDC@@UAEKK@Z 0041b338     mfc71u:MFC71U.DLL
 0002:0000033c       __imp_?SelectObject@CDC@@UAEPAVCFont@@PAV2@@Z 0041b33c     mfc71u:MFC71U.DLL
 0002:00000340       __imp_?RecalcLayout@CFrameWnd@@UAEXH@Z 0041b340     mfc71u:MFC71U.DLL
 0002:00000344       __imp_?RestoreDC@CDC@@UAEHH@Z 0041b344     mfc71u:MFC71U.DLL
 0002:00000348       __imp_?SaveDC@CDC@@UAEHXZ  0041b348     mfc71u:MFC71U.DLL
 0002:0000034c       __imp_?ReleaseOutputDC@CDC@@UAEXXZ 0041b34c     mfc71u:MFC71U.DLL
 0002:00000350       __imp_?ReleaseAttribDC@CDC@@UAEXXZ 0041b350     mfc71u:MFC71U.DLL
 0002:00000354       __imp_?SetOutputDC@CDC@@UAEXPAUHDC__@@@Z 0041b354     mfc71u:MFC71U.DLL
 0002:00000358       __imp_?SetAttribDC@CDC@@UAEXPAUHDC__@@@Z 0041b358     mfc71u:MFC71U.DLL
 0002:0000035c       __imp_?GetRuntimeClass@CDC@@UBEPAUCRuntimeClass@@XZ 0041b35c     mfc71u:MFC71U.DLL
 0002:00000360       __imp_?GetScrollInfo@CWnd@@QAEHHPAUtagSCROLLINFO@@I@Z 0041b360     mfc71u:MFC71U.DLL
 0002:00000364       __imp_??1CClientDC@@UAE@XZ 0041b364     mfc71u:MFC71U.DLL
 0002:00000368       __imp_?FillSolidRect@CDC@@QAEXPBUtagRECT@@K@Z 0041b368     mfc71u:MFC71U.DLL
 0002:0000036c       __imp_??0CClientDC@@QAE@PAVCWnd@@@Z 0041b36c     mfc71u:MFC71U.DLL
 0002:00000370       __imp_?GetScrollPos@CWnd@@QBEHH@Z 0041b370     mfc71u:MFC71U.DLL
 0002:00000374       __imp_?GetScrollLimit@CWnd@@QAEHH@Z 0041b374     mfc71u:MFC71U.DLL
 0002:00000378       __imp_??Y?$CStringT@_WV?$StrTraitMFC_DLL@_WV?$ChTraitsCRT@_W@ATL@@@@@ATL@@QAEAAV01@PB_W@Z 0041b378     mfc71u:MFC71U.DLL
 0002:0000037c       __imp_?ActivateFrame@CFrameWnd@@UAEXH@Z 0041b37c     mfc71u:MFC71U.DLL
 0002:00000380       __imp_?OnSetPreviewMode@CFrameWnd@@UAEXHPAUCPrintPreviewState@@@Z 0041b380     mfc71u:MFC71U.DLL
 0002:00000384       __imp_?GetMessageBar@CFrameWnd@@UAEPAVCWnd@@XZ 0041b384     mfc71u:MFC71U.DLL
 0002:00000388       __imp_?Insert@?$CStringT@_WV?$StrTraitMFC_DLL@_WV?$ChTraitsCRT@_W@ATL@@@@@ATL@@QAEHH_W@Z 0041b388     mfc71u:MFC71U.DLL
 0002:0000038c       __imp_?GetAt@?$CSimpleStringT@_W$00@ATL@@QBE_WH@Z 0041b38c     mfc71u:MFC71U.DLL
 0002:00000390       __imp_??Y?$CStringT@_WV?$StrTraitMFC_DLL@_WV?$ChTraitsCRT@_W@ATL@@@@@ATL@@QAEAAV01@ABV?$CSimpleStringT@_W$00@1@@Z 0041b390     mfc71u:MFC71U.DLL
 0002:00000394       __imp_??0?$CStringT@_WV?$StrTraitMFC_DLL@_WV?$ChTraitsCRT@_W@ATL@@@@@ATL@@QAE@ABV01@@Z 0041b394     mfc71u:MFC71U.DLL
 0002:00000398       __imp_??0?$CStringT@_WV?$StrTraitMFC_DLL@_WV?$ChTraitsCRT@_W@ATL@@@@@ATL@@QAE@XZ 0041b398     mfc71u:MFC71U.DLL
 0002:0000039c       __imp_?Find@?$CStringT@_WV?$StrTraitMFC_DLL@_WV?$ChTraitsCRT@_W@ATL@@@@@ATL@@QBEHPB_WH@Z 0041b39c     mfc71u:MFC71U.DLL
 0002:000003a0       __imp_?Left@?$CStringT@_WV?$StrTraitMFC_DLL@_WV?$ChTraitsCRT@_W@ATL@@@@@ATL@@QBE?AV12@H@Z 0041b3a0     mfc71u:MFC71U.DLL
 0002:000003a4       __imp_??4?$CStringT@_WV?$StrTraitMFC_DLL@_WV?$ChTraitsCRT@_W@ATL@@@@@ATL@@QAEAAV01@ABV01@@Z 0041b3a4     mfc71u:MFC71U.DLL
 0002:000003a8       __imp_?GetLength@?$CSimpleStringT@_W$00@ATL@@QBEHXZ 0041b3a8     mfc71u:MFC71U.DLL
 0002:000003ac       __imp_?Right@?$CStringT@_WV?$StrTraitMFC_DLL@_WV?$ChTraitsCRT@_W@ATL@@@@@ATL@@QBE?AV12@H@Z 0041b3ac     mfc71u:MFC71U.DLL
 0002:000003b0       __imp_??B?$CSimpleStringT@_W$00@ATL@@QBEPB_WXZ 0041b3b0     mfc71u:MFC71U.DLL
 0002:000003b4       __imp_?AfxGetThread@@YGPAVCWinThread@@XZ 0041b3b4     mfc71u:MFC71U.DLL
 0002:000003b8       __imp_?Compare@?$CStringT@_WV?$StrTraitMFC_DLL@_WV?$ChTraitsCRT@_W@ATL@@@@@ATL@@QBEHPB_W@Z 0041b3b8     mfc71u:MFC71U.DLL
 0002:000003bc       __imp_?GetRuntimeClass@CWnd@@UBEPAUCRuntimeClass@@XZ 0041b3bc     mfc71u:MFC71U.DLL
 0002:000003c0       __imp_??2@YAPAXI@Z         0041b3c0     mfc71u:MFC71U.DLL
 0002:000003c4       __imp_?GetRuntimeClass@CWinApp@@UBEPAUCRuntimeClass@@XZ 0041b3c4     mfc71u:MFC71U.DLL
 0002:000003c8       __imp_?OnFinalRelease@CCmdTarget@@UAEXXZ 0041b3c8     mfc71u:MFC71U.DLL
 0002:000003cc       __imp_?GetInterfaceMap@CCmdTarget@@MBEPBUAFX_INTERFACEMAP@@XZ 0041b3cc     mfc71u:MFC71U.DLL
 0002:000003d0       __imp_?PreTranslateMessage@CWinThread@@UAEHPAUtagMSG@@@Z 0041b3d0     mfc71u:MFC71U.DLL
 0002:000003d4       __imp_?PumpMessage@CWinThread@@UAEHXZ 0041b3d4     mfc71u:MFC71U.DLL
 0002:000003d8       __imp_?OnIdle@CWinApp@@UAEHJ@Z 0041b3d8     mfc71u:MFC71U.DLL
 0002:000003dc       __imp_?IsIdleMessage@CWinThread@@UAEHPAUtagMSG@@@Z 0041b3dc     mfc71u:MFC71U.DLL
 0002:000003e0       __imp_?ProcessWndProcException@CWinApp@@UAEJPAVCException@@PBUtagMSG@@@Z 0041b3e0     mfc71u:MFC71U.DLL
 0002:000003e4       __imp_?ProcessMessageFilter@CWinThread@@UAEHHPAUtagMSG@@@Z 0041b3e4     mfc71u:MFC71U.DLL
 0002:000003e8       __imp_?GetMainWnd@CWinThread@@UAEPAVCWnd@@XZ 0041b3e8     mfc71u:MFC71U.DLL
 0002:000003ec       __imp_?Delete@CWinThread@@UAEXXZ 0041b3ec     mfc71u:MFC71U.DLL
 0002:000003f0       __imp_?InitLibId@CWinApp@@UAEXXZ 0041b3f0     mfc71u:MFC71U.DLL
 0002:000003f4       __imp_?Register@CWinApp@@UAEHXZ 0041b3f4     mfc71u:MFC71U.DLL
 0002:000003f8       __imp_?Unregister@CWinApp@@UAEHXZ 0041b3f8     mfc71u:MFC71U.DLL
 0002:000003fc       __imp_?OpenDocumentFile@CWinApp@@UAEPAVCDocument@@PB_W@Z 0041b3fc     mfc71u:MFC71U.DLL
 0002:00000400       __imp_?AddToRecentFileList@CWinApp@@UAEXPB_W@Z 0041b400     mfc71u:MFC71U.DLL
 0002:00000404       __imp_?InitApplication@CWinApp@@UAEHXZ 0041b404     mfc71u:MFC71U.DLL
 0002:00000408       __imp_?SaveAllModified@CWinApp@@UAEHXZ 0041b408     mfc71u:MFC71U.DLL
 0002:0000040c       __imp_?DoMessageBox@CWinApp@@UAEHPB_WII@Z 0041b40c     mfc71u:MFC71U.DLL
 0002:00000410       __imp_?NegotiateBorderSpace@CFrameWnd@@UAEHIPAUtagRECT@@@Z 0041b410     mfc71u:MFC71U.DLL
 0002:00000414       __imp_?OnCreateClient@CFrameWnd@@MAEHPAUtagCREATESTRUCTW@@PAUCCreateContext@@@Z 0041b414     mfc71u:MFC71U.DLL
 0002:00000418       __imp_?OnUpdateFrameTitle@CFrameWnd@@UAEXH@Z 0041b418     mfc71u:MFC71U.DLL
 0002:0000041c       __imp_?OnUpdateFrameMenu@CFrameWnd@@UAEXPAUHMENU__@@@Z 0041b41c     mfc71u:MFC71U.DLL
 0002:00000420       __imp_?GetDefaultAccelerator@CFrameWnd@@UAEPAUHACCEL__@@XZ 0041b420     mfc71u:MFC71U.DLL
 0002:00000424       __imp_?DelayUpdateFrameMenu@CFrameWnd@@UAEXPAUHMENU__@@@Z 0041b424     mfc71u:MFC71U.DLL
 0002:00000428       __imp_?ExitHelpMode@CFrameWnd@@UAEXXZ 0041b428     mfc71u:MFC71U.DLL
 0002:0000042c       __imp_?GetThisMessageMap@CFrameWnd@@KGPBUAFX_MSGMAP@@XZ 0041b42c     mfc71u:MFC71U.DLL
 0002:00000430       __imp_?GetWindowTextW@CWnd@@QBEXAAV?$CStringT@_WV?$StrTraitMFC_DLL@_WV?$ChTraitsCRT@_W@ATL@@@@@ATL@@@Z 0041b430     mfc71u:MFC71U.DLL
 0002:00000434       __imp_?SetWindowTextW@CWnd@@QAEXPB_W@Z 0041b434     mfc71u:MFC71U.DLL
 0002:00000438       __imp_?SetFocus@CWnd@@QAEPAV1@XZ 0041b438     mfc71u:MFC71U.DLL
 0002:0000043c       __imp_??4?$CStringT@_WV?$StrTraitMFC_DLL@_WV?$ChTraitsCRT@_W@ATL@@@@@ATL@@QAEAAV01@PB_W@Z 0041b43c     mfc71u:MFC71U.DLL
 0002:00000440       __imp_?OnCtlColor@CWnd@@IAEPAUHBRUSH__@@PAVCDC@@PAV1@I@Z 0041b440     mfc71u:MFC71U.DLL
 0002:00000444       __imp_?GetDlgItem@CWnd@@QBEPAV1@H@Z 0041b444     mfc71u:MFC71U.DLL
 0002:00000448       __imp_?SetBkMode@CDC@@QAEHH@Z 0041b448     mfc71u:MFC71U.DLL
 0002:0000044c       __imp_??1CEdit@@UAE@XZ     0041b44c     mfc71u:MFC71U.DLL
 0002:00000450       __imp_?GetRuntimeClass@CEdit@@UBEPAUCRuntimeClass@@XZ 0041b450     mfc71u:MFC71U.DLL
 0002:00000454       __imp_?Create@CEdit@@UAEHKABUtagRECT@@PAVCWnd@@I@Z 0041b454     mfc71u:MFC71U.DLL
 0002:00000458       __imp_?SelectStockObject@CDC@@UAEPAVCGdiObject@@H@Z 0041b458     mfc71u:MFC71U.DLL
 0002:0000045c       __imp_?GetRuntimeClass@CBrush@@UBEPAUCRuntimeClass@@XZ 0041b45c     mfc71u:MFC71U.DLL
 0002:00000460       __imp_?DoWaitCursor@CWinApp@@UAEXH@Z 0041b460     mfc71u:MFC71U.DLL
 0002:00000464       __imp_?OnDDECommand@CWinApp@@UAEHPA_W@Z 0041b464     mfc71u:MFC71U.DLL
 0002:00000468       __imp_?WinHelpW@CWinApp@@UAEXKI@Z 0041b468     mfc71u:MFC71U.DLL
 0002:0000046c       __imp_?HtmlHelpW@CWinApp@@UAEXKI@Z 0041b46c     mfc71u:MFC71U.DLL
 0002:00000470       __imp_?WinHelpInternal@CWinApp@@UAEXKI@Z 0041b470     mfc71u:MFC71U.DLL
 0002:00000474       __imp_?LoadAppLangResourceDLL@CWinApp@@UAEPAUHINSTANCE__@@XZ 0041b474     mfc71u:MFC71U.DLL
 0002:00000478       __imp_?LoadSysPolicies@CWinApp@@UAEHXZ 0041b478     mfc71u:MFC71U.DLL
 0002:0000047c       __imp_??0?$CStringT@_WV?$StrTraitMFC_DLL@_WV?$ChTraitsCRT@_W@ATL@@@@@ATL@@QAE@PB_W@Z 0041b47c     mfc71u:MFC71U.DLL
 0002:00000480       __imp_?Format@?$CStringT@_WV?$StrTraitMFC_DLL@_WV?$ChTraitsCRT@_W@ATL@@@@@ATL@@QAAXPB_WZZ 0041b480     mfc71u:MFC71U.DLL
 0002:00000484       __imp_?GetBuffer@?$CSimpleStringT@_W$00@ATL@@QAEPA_WH@Z 0041b484     mfc71u:MFC71U.DLL
 0002:00000488       __imp_??1?$CStringT@_WV?$StrTraitMFC_DLL@_WV?$ChTraitsCRT@_W@ATL@@@@@ATL@@QAE@XZ 0041b488     mfc71u:MFC71U.DLL
 0002:0000048c       __imp_?ModifyStyle@CWnd@@QAEHKKI@Z 0041b48c     mfc71u:MFC71U.DLL
 0002:00000490       __imp_?MoveWindow@CWnd@@QAEXHHHHH@Z 0041b490     mfc71u:MFC71U.DLL
 0002:00000494       __imp_?GetStyle@CWnd@@QBEKXZ 0041b494     mfc71u:MFC71U.DLL
 0002:00000498       __imp_?CreatePointFont@CFont@@QAEHHPB_WPAVCDC@@@Z 0041b498     mfc71u:MFC71U.DLL
 0002:0000049c       __imp_??1CRichEditCtrl@@UAE@XZ 0041b49c     mfc71u:MFC71U.DLL
 0002:000004a0       __imp_?AfxWinMain@@YGHPAUHINSTANCE__@@0PA_WH@Z 0041b4a0     mfc71u:MFC71U.DLL
 0002:000004a4       __imp_??0CWnd@@QAE@XZ      0041b4a4     mfc71u:MFC71U.DLL
 0002:000004a8       __imp_?GetRuntimeClass@CRichEditCtrl@@UBEPAUCRuntimeClass@@XZ 0041b4a8     mfc71u:MFC71U.DLL
 0002:000004ac       __imp_?OnCmdMsg@CCmdTarget@@UAEHIHPAXPAUAFX_CMDHANDLERINFO@@@Z 0041b4ac     mfc71u:MFC71U.DLL
 0002:000004b0       __imp_?OnFinalRelease@CWnd@@UAEXXZ 0041b4b0     mfc71u:MFC71U.DLL
 0002:000004b4       __imp_?IsInvokeAllowed@CCmdTarget@@UAEHJ@Z 0041b4b4     mfc71u:MFC71U.DLL
 0002:000004b8       __imp_?GetDispatchIID@CCmdTarget@@UAEHPAU_GUID@@@Z 0041b4b8     mfc71u:MFC71U.DLL
 0002:000004bc       __imp_?GetTypeInfoCount@CCmdTarget@@UAEIXZ 0041b4bc     mfc71u:MFC71U.DLL
 0002:000004c0       __imp_?GetTypeLibCache@CCmdTarget@@UAEPAVCTypeLibCache@@XZ 0041b4c0     mfc71u:MFC71U.DLL
 0002:000004c4       __imp_?GetTypeLib@CCmdTarget@@UAEJKPAPAUITypeLib@@@Z 0041b4c4     mfc71u:MFC71U.DLL
 0002:000004c8       __imp_?GetMessageMap@CWnd@@MBEPBUAFX_MSGMAP@@XZ 0041b4c8     mfc71u:MFC71U.DLL
 0002:000004cc       __imp_?GetCommandMap@CCmdTarget@@MBEPBUAFX_OLECMDMAP@@XZ 0041b4cc     mfc71u:MFC71U.DLL
 0002:000004d0       __imp_?GetDispatchMap@CCmdTarget@@MBEPBUAFX_DISPMAP@@XZ 0041b4d0     mfc71u:MFC71U.DLL
 0002:000004d4       __imp_?GetConnectionMap@CCmdTarget@@MBEPBUAFX_CONNECTIONMAP@@XZ 0041b4d4     mfc71u:MFC71U.DLL
 0002:000004d8       __imp_?GetInterfaceMap@CWnd@@MBEPBUAFX_INTERFACEMAP@@XZ 0041b4d8     mfc71u:MFC71U.DLL
 0002:000004dc       __imp_?GetEventSinkMap@CCmdTarget@@MBEPBUAFX_EVENTSINKMAP@@XZ 0041b4dc     mfc71u:MFC71U.DLL
 0002:000004e0       __imp_?OnCreateAggregates@CCmdTarget@@UAEHXZ 0041b4e0     mfc71u:MFC71U.DLL
 0002:000004e4       __imp_?GetInterfaceHook@CCmdTarget@@UAEPAUIUnknown@@PBX@Z 0041b4e4     mfc71u:MFC71U.DLL
 0002:000004e8       __imp_?GetExtraConnectionPoints@CCmdTarget@@MAEHPAVCPtrArray@@@Z 0041b4e8     mfc71u:MFC71U.DLL
 0002:000004ec       __imp_?GetConnectionHook@CCmdTarget@@MAEPAUIConnectionPoint@@ABU_GUID@@@Z 0041b4ec     mfc71u:MFC71U.DLL
 0002:000004f0       __imp_?Create@CWnd@@UAEHPB_W0KABUtagRECT@@PAV1@IPAUCCreateContext@@@Z 0041b4f0     mfc71u:MFC71U.DLL
 0002:000004f4       __imp_?CreateEx@CWnd@@UAEHKPB_W0KABUtagRECT@@PAV1@IPAX@Z 0041b4f4     mfc71u:MFC71U.DLL
 0002:000004f8       __imp_?CreateEx@CWnd@@UAEHKPB_W0KHHHHPAUHWND__@@PAUHMENU__@@PAX@Z 0041b4f8     mfc71u:MFC71U.DLL
 0002:000004fc       __imp_?DestroyWindow@CWnd@@UAEHXZ 0041b4fc     mfc71u:MFC71U.DLL
 0002:00000500       __imp_?PreCreateWindow@CWnd@@UAEHAAUtagCREATESTRUCTW@@@Z 0041b500     mfc71u:MFC71U.DLL
 0002:00000504       __imp_?CalcWindowRect@CWnd@@UAEXPAUtagRECT@@I@Z 0041b504     mfc71u:MFC71U.DLL
 0002:00000508       __imp_?OnToolHitTest@CWnd@@UBEHVCPoint@@PAUtagTOOLINFOW@@@Z 0041b508     mfc71u:MFC71U.DLL
 0002:0000050c       __imp_?GetScrollBarCtrl@CWnd@@UBEPAVCScrollBar@@H@Z 0041b50c     mfc71u:MFC71U.DLL
 0002:00000510       __imp_?WinHelpW@CWnd@@UAEXKI@Z 0041b510     mfc71u:MFC71U.DLL
 0002:00000514       __imp_?HtmlHelpW@CWnd@@UAEXKI@Z 0041b514     mfc71u:MFC71U.DLL
 0002:00000518       __imp_?WinHelpInternal@CWnd@@UAEXKI@Z 0041b518     mfc71u:MFC71U.DLL
 0002:0000051c       __imp_?ContinueModal@CWnd@@UAEHXZ 0041b51c     mfc71u:MFC71U.DLL
 0002:00000520       __imp_?EndModalLoop@CWnd@@UAEXH@Z 0041b520     mfc71u:MFC71U.DLL
 0002:00000524       __imp_?EnsureStdObj@CWnd@@UAEJXZ 0041b524     mfc71u:MFC71U.DLL
 0002:00000528       __imp_?get_accParent@CWnd@@UAEJPAPAUIDispatch@@@Z 0041b528     mfc71u:MFC71U.DLL
 0002:0000052c       __imp_?get_accChildCount@CWnd@@UAEJPAJ@Z 0041b52c     mfc71u:MFC71U.DLL
 0002:00000530       __imp_?get_accChild@CWnd@@UAEJUtagVARIANT@@PAPAUIDispatch@@@Z 0041b530     mfc71u:MFC71U.DLL
 0002:00000534       __imp_?get_accName@CWnd@@UAEJUtagVARIANT@@PAPA_W@Z 0041b534     mfc71u:MFC71U.DLL
 0002:00000538       __imp_?get_accValue@CWnd@@UAEJUtagVARIANT@@PAPA_W@Z 0041b538     mfc71u:MFC71U.DLL
 0002:0000053c       __imp_?get_accDescription@CWnd@@UAEJUtagVARIANT@@PAPA_W@Z 0041b53c     mfc71u:MFC71U.DLL
 0002:00000540       __imp_?get_accRole@CWnd@@UAEJUtagVARIANT@@PAU2@@Z 0041b540     mfc71u:MFC71U.DLL
 0002:00000544       __imp_?get_accState@CWnd@@UAEJUtagVARIANT@@PAU2@@Z 0041b544     mfc71u:MFC71U.DLL
 0002:00000548       __imp_?get_accHelp@CWnd@@UAEJUtagVARIANT@@PAPA_W@Z 0041b548     mfc71u:MFC71U.DLL
 0002:0000054c       __imp_?get_accHelpTopic@CWnd@@UAEJPAPA_WUtagVARIANT@@PAJ@Z 0041b54c     mfc71u:MFC71U.DLL
 0002:00000550       __imp_?get_accKeyboardShortcut@CWnd@@UAEJUtagVARIANT@@PAPA_W@Z 0041b550     mfc71u:MFC71U.DLL
 0002:00000554       __imp_?get_accFocus@CWnd@@UAEJPAUtagVARIANT@@@Z 0041b554     mfc71u:MFC71U.DLL
 0002:00000558       __imp_?get_accSelection@CWnd@@UAEJPAUtagVARIANT@@@Z 0041b558     mfc71u:MFC71U.DLL
 0002:0000055c       __imp_?get_accDefaultAction@CWnd@@UAEJUtagVARIANT@@PAPA_W@Z 0041b55c     mfc71u:MFC71U.DLL
 0002:00000560       __imp_?accSelect@CWnd@@UAEJJUtagVARIANT@@@Z 0041b560     mfc71u:MFC71U.DLL
 0002:00000564       __imp_?accLocation@CWnd@@UAEJPAJ000UtagVARIANT@@@Z 0041b564     mfc71u:MFC71U.DLL
 0002:00000568       __imp_?accNavigate@CWnd@@UAEJJUtagVARIANT@@PAU2@@Z 0041b568     mfc71u:MFC71U.DLL
 0002:0000056c       __imp_?accHitTest@CWnd@@UAEJJJPAUtagVARIANT@@@Z 0041b56c     mfc71u:MFC71U.DLL
 0002:00000570       __imp_?accDoDefaultAction@CWnd@@UAEJUtagVARIANT@@@Z 0041b570     mfc71u:MFC71U.DLL
 0002:00000574       __imp_?put_accName@CWnd@@UAEJUtagVARIANT@@PA_W@Z 0041b574     mfc71u:MFC71U.DLL
 0002:00000578       __imp_?put_accValue@CWnd@@UAEJUtagVARIANT@@PA_W@Z 0041b578     mfc71u:MFC71U.DLL
 0002:0000057c       __imp_?SetProxy@CWnd@@UAEJPAUIAccessibleProxy@@@Z 0041b57c     mfc71u:MFC71U.DLL
 0002:00000580       __imp_?CreateAccessibleProxy@CWnd@@UAEJIJPAJ@Z 0041b580     mfc71u:MFC71U.DLL
 0002:00000584       __imp_?OnCommand@CWnd@@MAEHIJ@Z 0041b584     mfc71u:MFC71U.DLL
 0002:00000588       __imp_?OnNotify@CWnd@@MAEHIJPAJ@Z 0041b588     mfc71u:MFC71U.DLL
 0002:0000058c       __imp_?GetSuperWndProcAddr@CWnd@@MAEPAP6GJPAUHWND__@@IIJ@ZXZ 0041b58c     mfc71u:MFC71U.DLL
 0002:00000590       __imp_?PreTranslateMessage@CWnd@@UAEHPAUtagMSG@@@Z 0041b590     mfc71u:MFC71U.DLL
 0002:00000594       __imp_?OnAmbientProperty@CWnd@@UAEHPAVCOleControlSite@@JPAUtagVARIANT@@@Z 0041b594     mfc71u:MFC71U.DLL
 0002:00000598       __imp_?WindowProc@CWnd@@MAEJIIJ@Z 0041b598     mfc71u:MFC71U.DLL
 0002:0000059c       __imp_?OnWndMsg@CWnd@@MAEHIIJPAJ@Z 0041b59c     mfc71u:MFC71U.DLL
 0002:000005a0       __imp_?DefWindowProcW@CWnd@@MAEJIIJ@Z 0041b5a0     mfc71u:MFC71U.DLL
 0002:000005a4       __imp_?PostNcDestroy@CWnd@@MAEXXZ 0041b5a4     mfc71u:MFC71U.DLL
 0002:000005a8       __imp_?OnChildNotify@CWnd@@MAEHIIJPAJ@Z 0041b5a8     mfc71u:MFC71U.DLL
 0002:000005ac       __imp_?CheckAutoCenter@CWnd@@UAEHXZ 0041b5ac     mfc71u:MFC71U.DLL
 0002:000005b0       __imp_?IsFrameWnd@CWnd@@UBEHXZ 0041b5b0     mfc71u:MFC71U.DLL
 0002:000005b4       __imp_?CreateControlContainer@CWnd@@MAEHPAPAVCOleControlContainer@@@Z 0041b5b4     mfc71u:MFC71U.DLL
 0002:000005b8       __imp_?CreateControlSite@CWnd@@MAEHPAVCOleControlContainer@@PAPAVCOleControlSite@@IABU_GUID@@@Z 0041b5b8     mfc71u:MFC71U.DLL
 0002:000005bc       __imp_?SetOccDialogInfo@CWnd@@MAEHPAU_AFX_OCC_DIALOG_INFO@@@Z 0041b5bc     mfc71u:MFC71U.DLL
 0002:000005c0       __imp_?Create@CRichEditCtrl@@UAEHKABUtagRECT@@PAVCWnd@@I@Z 0041b5c0     mfc71u:MFC71U.DLL
 0002:000005c4       __imp_?CreateEx@CRichEditCtrl@@UAEHKKABUtagRECT@@PAVCWnd@@I@Z 0041b5c4     mfc71u:MFC71U.DLL
 0002:000005c8       __imp_?Default@CWnd@@IAEJXZ 0041b5c8     mfc71u:MFC71U.DLL
 0002:000005cc       __imp_?FromHandle@CWnd@@SGPAV1@PAUHWND__@@@Z 0041b5cc     mfc71u:MFC71U.DLL
 0002:000005d0       __imp_?Attach@CGdiObject@@QAEHPAX@Z 0041b5d0     mfc71u:MFC71U.DLL
 0002:000005d4       __imp_?GetRuntimeClass@CFont@@UBEPAUCRuntimeClass@@XZ 0041b5d4     mfc71u:MFC71U.DLL
 0002:000005d8       __imp_?DeleteObject@CGdiObject@@QAEHXZ 0041b5d8     mfc71u:MFC71U.DLL
 0002:000005dc       __imp_?GetRuntimeClass@CGdiObject@@UBEPAUCRuntimeClass@@XZ 0041b5dc     mfc71u:MFC71U.DLL
 0002:000005e0       __imp_?OnVScroll@CWnd@@IAEXIIPAVCScrollBar@@@Z 0041b5e0     mfc71u:MFC71U.DLL
 0002:000005e4       __imp_?PreSubclassWindow@CWnd@@UAEXXZ 0041b5e4     mfc71u:MFC71U.DLL
 0002:000005e8       __imp_?ShowWindow@CWnd@@QAEHH@Z 0041b5e8     mfc71u:MFC71U.DLL
 0002:000005ec       __imp_?GetThisMessageMap@CWnd@@KGPBUAFX_MSGMAP@@XZ 0041b5ec     mfc71u:MFC71U.DLL
 0002:000005f0       __imp_??3@YAXPAX@Z         0041b5f0     mfc71u:MFC71U.DLL
 0002:000005f4       __imp_?FromHandle@CDC@@SGPAV1@PAUHDC__@@@Z 0041b5f4     mfc71u:MFC71U.DLL
 0002:000005f8       __imp_?AfxGetModuleState@@YGPAVAFX_MODULE_STATE@@XZ 0041b5f8     mfc71u:MFC71U.DLL
 0002:000005fc       \177MFC71U_NULL_THUNK_DATA 0041b5fc     mfc71u:MFC71U.DLL
 0002:00000600       __imp__TransparentBlt@44   0041b600     msimg32:MSIMG32.dll
 0002:00000604       \177MSIMG32_NULL_THUNK_DATA 0041b604     msimg32:MSIMG32.dll
 0002:00000608       __imp_?width@ios_base@std@@QBEHXZ 0041b608     msvcprt:MSVCP71.dll
 0002:0000060c       __imp_?erase@?$basic_string@DU?$char_traits@D@std@@V?$allocator@D@2@@std@@QAEAAV12@II@Z 0041b60c     msvcprt:MSVCP71.dll
 0002:00000610       __imp_?npos@?$basic_string@DU?$char_traits@D@std@@V?$allocator@D@2@@std@@2IB 0041b610     msvcprt:MSVCP71.dll
 0002:00000614       __imp_??1locale@std@@QAE@XZ 0041b614     msvcprt:MSVCP71.dll
 0002:00000618       __imp_?getloc@ios_base@std@@QBE?AVlocale@2@XZ 0041b618     msvcprt:MSVCP71.dll
 0002:0000061c       __imp_?size@?$basic_string@DU?$char_traits@D@std@@V?$allocator@D@2@@std@@QBEIXZ 0041b61c     msvcprt:MSVCP71.dll
 0002:00000620       __imp_?sbumpc@?$basic_streambuf@DU?$char_traits@D@std@@@std@@QAEHXZ 0041b620     msvcprt:MSVCP71.dll
 0002:00000624       __imp_?to_int_type@?$char_traits@D@std@@SAHABD@Z 0041b624     msvcprt:MSVCP71.dll
 0002:00000628       __imp_??A?$basic_string@DU?$char_traits@D@std@@V?$allocator@D@2@@std@@QBEABDI@Z 0041b628     msvcprt:MSVCP71.dll
 0002:0000062c       __imp_?sputc@?$basic_streambuf@DU?$char_traits@D@std@@@std@@QAEHD@Z 0041b62c     msvcprt:MSVCP71.dll
 0002:00000630       __imp_?fill@?$basic_ios@DU?$char_traits@D@std@@@std@@QBEDXZ 0041b630     msvcprt:MSVCP71.dll
 0002:00000634       __imp_?flags@ios_base@std@@QBEHXZ 0041b634     msvcprt:MSVCP71.dll
 0002:00000638       __imp_?setstate@?$basic_ios@_WU?$char_traits@_W@std@@@std@@QAEXH_N@Z 0041b638     msvcprt:MSVCP71.dll
 0002:0000063c       __imp_?snextc@?$basic_streambuf@_WU?$char_traits@_W@std@@@std@@QAEGXZ 0041b63c     msvcprt:MSVCP71.dll
 0002:00000640       __imp_?append@?$basic_string@_WU?$char_traits@_W@std@@V?$allocator@_W@2@@std@@QAEAAV12@I_W@Z 0041b640     msvcprt:MSVCP71.dll
 0002:00000644       __imp_?max_size@?$basic_string@DU?$char_traits@D@std@@V?$allocator@D@2@@std@@QBEIXZ 0041b644     msvcprt:MSVCP71.dll
 0002:00000648       __imp_?to_char_type@?$char_traits@_W@std@@SA_WABG@Z 0041b648     msvcprt:MSVCP71.dll
 0002:0000064c       __imp_?eq_int_type@?$char_traits@_W@std@@SA_NABG0@Z 0041b64c     msvcprt:MSVCP71.dll
 0002:00000650       __imp_?eof@?$char_traits@_W@std@@SAGXZ 0041b650     msvcprt:MSVCP71.dll
 0002:00000654       __imp_?sgetc@?$basic_streambuf@_WU?$char_traits@_W@std@@@std@@QAEGXZ 0041b654     msvcprt:MSVCP71.dll
 0002:00000658       __imp_?max_size@?$basic_string@_WU?$char_traits@_W@std@@V?$allocator@_W@2@@std@@QBEIXZ 0041b658     msvcprt:MSVCP71.dll
 0002:0000065c       __imp_?erase@?$basic_string@_WU?$char_traits@_W@std@@V?$allocator@_W@2@@std@@QAEAAV12@II@Z 0041b65c     msvcprt:MSVCP71.dll
 0002:00000660       __imp_?npos@?$basic_string@_WU?$char_traits@_W@std@@V?$allocator@_W@2@@std@@2IB 0041b660     msvcprt:MSVCP71.dll
 0002:00000664       __imp_?size@?$basic_string@_WU?$char_traits@_W@std@@V?$allocator@_W@2@@std@@QBEIXZ 0041b664     msvcprt:MSVCP71.dll
 0002:00000668       __imp_?sbumpc@?$basic_streambuf@_WU?$char_traits@_W@std@@@std@@QAEGXZ 0041b668     msvcprt:MSVCP71.dll
 0002:0000066c       __imp_?to_int_type@?$char_traits@_W@std@@SAGAB_W@Z 0041b66c     msvcprt:MSVCP71.dll
 0002:00000670       __imp_??A?$basic_string@_WU?$char_traits@_W@std@@V?$allocator@_W@2@@std@@QBEAB_WI@Z 0041b670     msvcprt:MSVCP71.dll
 0002:00000674       __imp_?sputc@?$basic_streambuf@_WU?$char_traits@_W@std@@@std@@QAEG_W@Z 0041b674     msvcprt:MSVCP71.dll
 0002:00000678       __imp_?fill@?$basic_ios@_WU?$char_traits@_W@std@@@std@@QBE_WXZ 0041b678     msvcprt:MSVCP71.dll
 0002:0000067c       __imp_?widen@?$basic_ios@DU?$char_traits@D@std@@@std@@QBEDD@Z 0041b67c     msvcprt:MSVCP71.dll
 0002:00000680       __imp_?widen@?$basic_ios@_WU?$char_traits@_W@std@@@std@@QBE_WD@Z 0041b680     msvcprt:MSVCP71.dll
 0002:00000684       __imp_?is@?$ctype@_W@std@@QBE_NF_W@Z 0041b684     msvcprt:MSVCP71.dll
 0002:00000688       __imp_?sgetc@?$basic_streambuf@DU?$char_traits@D@std@@@std@@QAEHXZ 0041b688     msvcprt:MSVCP71.dll
 0002:0000068c       __imp_?_Unlock@?$basic_streambuf@DU?$char_traits@D@std@@@std@@QAEXXZ 0041b68c     msvcprt:MSVCP71.dll
 0002:00000690       __imp_?rdbuf@?$basic_ios@DU?$char_traits@D@std@@@std@@QBEPAV?$basic_streambuf@DU?$char_traits@D@std@@@2@XZ 0041b690     msvcprt:MSVCP71.dll
 0002:00000694       __imp_?_Unlock@?$basic_streambuf@_WU?$char_traits@_W@std@@@std@@QAEXXZ 0041b694     msvcprt:MSVCP71.dll
 0002:00000698       __imp_?rdbuf@?$basic_ios@_WU?$char_traits@_W@std@@@std@@QBEPAV?$basic_streambuf@_WU?$char_traits@_W@std@@@2@XZ 0041b698     msvcprt:MSVCP71.dll
 0002:0000069c       __imp_?_Lock@?$basic_streambuf@DU?$char_traits@D@std@@@std@@QAEXXZ 0041b69c     msvcprt:MSVCP71.dll
 0002:000006a0       __imp_?_Lock@?$basic_streambuf@_WU?$char_traits@_W@std@@@std@@QAEXXZ 0041b6a0     msvcprt:MSVCP71.dll
 0002:000006a4       __imp_??1_Lockit@std@@QAE@XZ 0041b6a4     msvcprt:MSVCP71.dll
 0002:000006a8       __imp_?_Register@facet@locale@std@@QAEXXZ 0041b6a8     msvcprt:MSVCP71.dll
 0002:000006ac       __imp_?_Incref@facet@locale@std@@QAEXXZ 0041b6ac     msvcprt:MSVCP71.dll
 0002:000006b0       __imp_?_Getcat@?$ctype@D@std@@SAIPAPBVfacet@locale@2@@Z 0041b6b0     msvcprt:MSVCP71.dll
 0002:000006b4       __imp_?_Getfacet@locale@std@@QBEPBVfacet@12@I@Z 0041b6b4     msvcprt:MSVCP71.dll
 0002:000006b8       __imp_??Bid@locale@std@@QAEIXZ 0041b6b8     msvcprt:MSVCP71.dll
 0002:000006bc       __imp_?eof@?$char_traits@D@std@@SAHXZ 0041b6bc     msvcprt:MSVCP71.dll
 0002:000006c0       __imp_?eq_int_type@?$char_traits@D@std@@SA_NABH0@Z 0041b6c0     msvcprt:MSVCP71.dll
 0002:000006c4       __imp_?to_char_type@?$char_traits@D@std@@SADABH@Z 0041b6c4     msvcprt:MSVCP71.dll
 0002:000006c8       __imp_?is@?$ctype@D@std@@QBE_NFD@Z 0041b6c8     msvcprt:MSVCP71.dll
 0002:000006cc       __imp_?append@?$basic_string@DU?$char_traits@D@std@@V?$allocator@D@2@@std@@QAEAAV12@ID@Z 0041b6cc     msvcprt:MSVCP71.dll
 0002:000006d0       __imp_?snextc@?$basic_streambuf@DU?$char_traits@D@std@@@std@@QAEHXZ 0041b6d0     msvcprt:MSVCP71.dll
 0002:000006d4       __imp_?setstate@?$basic_ios@DU?$char_traits@D@std@@@std@@QAEXH_N@Z 0041b6d4     msvcprt:MSVCP71.dll
 0002:000006d8       __imp_?width@ios_base@std@@QAEHH@Z 0041b6d8     msvcprt:MSVCP71.dll
 0002:000006dc       __imp_?_Osfx@?$basic_ostream@_WU?$char_traits@_W@std@@@std@@QAEXXZ 0041b6dc     msvcprt:MSVCP71.dll
 0002:000006e0       __imp_?tie@?$basic_ios@_WU?$char_traits@_W@std@@@std@@QBEPAV?$basic_ostream@_WU?$char_traits@_W@std@@@2@XZ 0041b6e0     msvcprt:MSVCP71.dll
 0002:000006e4       __imp_?flush@?$basic_ostream@_WU?$char_traits@_W@std@@@std@@QAEAAV12@XZ 0041b6e4     msvcprt:MSVCP71.dll
 0002:000006e8       __imp_?uncaught_exception@std@@YA_NXZ 0041b6e8     msvcprt:MSVCP71.dll
 0002:000006ec       __imp_?_Osfx@?$basic_ostream@DU?$char_traits@D@std@@@std@@QAEXXZ 0041b6ec     msvcprt:MSVCP71.dll
 0002:000006f0       __imp_?good@ios_base@std@@QBE_NXZ 0041b6f0     msvcprt:MSVCP71.dll
 0002:000006f4       __imp_?tie@?$basic_ios@DU?$char_traits@D@std@@@std@@QBEPAV?$basic_ostream@DU?$char_traits@D@std@@@2@XZ 0041b6f4     msvcprt:MSVCP71.dll
 0002:000006f8       __imp_?flush@?$basic_ostream@DU?$char_traits@D@std@@@std@@QAEAAV12@XZ 0041b6f8     msvcprt:MSVCP71.dll
 0002:000006fc       __imp_?_Ipfx@?$basic_istream@_WU?$char_traits@_W@std@@@std@@QAE_N_N@Z 0041b6fc     msvcprt:MSVCP71.dll
 0002:00000700       __imp_?_Ipfx@?$basic_istream@DU?$char_traits@D@std@@@std@@QAE_N_N@Z 0041b700     msvcprt:MSVCP71.dll
 0002:00000704       __imp_??Y?$basic_string@_WU?$char_traits@_W@std@@V?$allocator@_W@2@@std@@QAEAAV01@_W@Z 0041b704     msvcprt:MSVCP71.dll
 0002:00000708       __imp_??Y?$basic_string@_WU?$char_traits@_W@std@@V?$allocator@_W@2@@std@@QAEAAV01@PB_W@Z 0041b708     msvcprt:MSVCP71.dll
 0002:0000070c       __imp_??0?$basic_string@_WU?$char_traits@_W@std@@V?$allocator@_W@2@@std@@QAE@I_W@Z 0041b70c     msvcprt:MSVCP71.dll
 0002:00000710       __imp_??0?$basic_string@_WU?$char_traits@_W@std@@V?$allocator@_W@2@@std@@QAE@PB_W@Z 0041b710     msvcprt:MSVCP71.dll
 0002:00000714       __imp_??0?$basic_string@_WU?$char_traits@_W@std@@V?$allocator@_W@2@@std@@QAE@ABV01@@Z 0041b714     msvcprt:MSVCP71.dll
 0002:00000718       __imp_??Y?$basic_string@_WU?$char_traits@_W@std@@V?$allocator@_W@2@@std@@QAEAAV01@ABV01@@Z 0041b718     msvcprt:MSVCP71.dll
 0002:0000071c       __imp_??1?$basic_string@_WU?$char_traits@_W@std@@V?$allocator@_W@2@@std@@QAE@XZ 0041b71c     msvcprt:MSVCP71.dll
 0002:00000720       __imp_??Y?$basic_string@DU?$char_traits@D@std@@V?$allocator@D@2@@std@@QAEAAV01@D@Z 0041b720     msvcprt:MSVCP71.dll
 0002:00000724       __imp_??Y?$basic_string@DU?$char_traits@D@std@@V?$allocator@D@2@@std@@QAEAAV01@PBD@Z 0041b724     msvcprt:MSVCP71.dll
 0002:00000728       __imp_??0?$basic_string@DU?$char_traits@D@std@@V?$allocator@D@2@@std@@QAE@ID@Z 0041b728     msvcprt:MSVCP71.dll
 0002:0000072c       __imp_??0?$basic_string@DU?$char_traits@D@std@@V?$allocator@D@2@@std@@QAE@PBD@Z 0041b72c     msvcprt:MSVCP71.dll
 0002:00000730       __imp_??0?$basic_string@DU?$char_traits@D@std@@V?$allocator@D@2@@std@@QAE@ABV01@@Z 0041b730     msvcprt:MSVCP71.dll
 0002:00000734       __imp_??Y?$basic_string@DU?$char_traits@D@std@@V?$allocator@D@2@@std@@QAEAAV01@ABV01@@Z 0041b734     msvcprt:MSVCP71.dll
 0002:00000738       __imp_??1?$basic_string@DU?$char_traits@D@std@@V?$allocator@D@2@@std@@QAE@XZ 0041b738     msvcprt:MSVCP71.dll
 0002:0000073c       __imp_?id@?$ctype@_W@std@@2V0locale@2@A 0041b73c     msvcprt:MSVCP71.dll
 0002:00000740       __imp_?_Getcat@?$ctype@_W@std@@SAIPAPBVfacet@locale@2@@Z 0041b740     msvcprt:MSVCP71.dll
 0002:00000744       __imp_??0_Lockit@std@@QAE@H@Z 0041b744     msvcprt:MSVCP71.dll
 0002:00000748       __imp_?id@?$ctype@D@std@@2V0locale@2@A 0041b748     msvcprt:MSVCP71.dll
 0002:0000074c       \177MSVCP71_NULL_THUNK_DATA 0041b74c     msvcprt:MSVCP71.dll
 0002:00000750       __imp____set_app_type      0041b750     msvcrt:MSVCR71.dll
 0002:00000754       __imp___XcptFilter         0041b754     msvcrt:MSVCR71.dll
 0002:00000758       __imp___cexit              0041b758     msvcrt:MSVCR71.dll
 0002:0000075c       __imp__exit                0041b75c     msvcrt:MSVCR71.dll
 0002:00000760       __imp___wcmdln             0041b760     msvcrt:MSVCR71.dll
 0002:00000764       __imp___amsg_exit          0041b764     msvcrt:MSVCR71.dll
 0002:00000768       __imp____wgetmainargs      0041b768     msvcrt:MSVCR71.dll
 0002:0000076c       __imp___initterm           0041b76c     msvcrt:MSVCR71.dll
 0002:00000770       __imp____setusermatherr    0041b770     msvcrt:MSVCR71.dll
 0002:00000774       __imp__realloc             0041b774     msvcrt:MSVCR71.dll
 0002:00000778       __imp___snwprintf          0041b778     msvcrt:MSVCR71.dll
 0002:0000077c       __imp__memmove             0041b77c     msvcrt:MSVCR71.dll
 0002:00000780       __imp___adjust_fdiv        0041b780     msvcrt:MSVCR71.dll
 0002:00000784       __imp____p__commode        0041b784     msvcrt:MSVCR71.dll
 0002:00000788       __imp____CxxFrameHandler   0041b788     msvcrt:MSVCR71.dll
 0002:0000078c       __imp____p__fmode          0041b78c     msvcrt:MSVCR71.dll
 0002:00000790       __imp____security_error_handler 0041b790     msvcrt:MSVCR71.dll
 0002:00000794       __imp____dllonexit         0041b794     msvcrt:MSVCR71.dll
 0002:00000798       __imp___onexit             0041b798     msvcrt:MSVCR71.dll
 0002:0000079c       __imp_?terminate@@YAXXZ    0041b79c     msvcrt:MSVCR71.dll
 0002:000007a0       __imp_??1type_info@@UAE@XZ 0041b7a0     msvcrt:MSVCR71.dll
 0002:000007a4       __imp___controlfp          0041b7a4     msvcrt:MSVCR71.dll
 0002:000007a8       __imp___c_exit             0041b7a8     msvcrt:MSVCR71.dll
 0002:000007ac       __imp__memset              0041b7ac     msvcrt:MSVCR71.dll
 0002:000007b0       __imp___CxxThrowException@8 0041b7b0     msvcrt:MSVCR71.dll
 0002:000007b4       __imp_??0bad_cast@@QAE@PBD@Z 0041b7b4     msvcrt:MSVCR71.dll
 0002:000007b8       __imp_??1bad_cast@@UAE@XZ  0041b7b8     msvcrt:MSVCR71.dll
 0002:000007bc       __imp_??0bad_cast@@QAE@ABV0@@Z 0041b7bc     msvcrt:MSVCR71.dll
 0002:000007c0       __imp_??0exception@@QAE@ABV0@@Z 0041b7c0     msvcrt:MSVCR71.dll
 0002:000007c4       __imp__free                0041b7c4     msvcrt:MSVCR71.dll
 0002:000007c8       __imp___except_handler3    0041b7c8     msvcrt:MSVCR71.dll
 0002:000007cc       __imp__rand                0041b7cc     msvcrt:MSVCR71.dll
 0002:000007d0       __imp___purecall           0041b7d0     msvcrt:MSVCR71.dll
 0002:000007d4       __imp___exit               0041b7d4     msvcrt:MSVCR71.dll
 0002:000007d8       __imp__wcscpy              0041b7d8     msvcrt:MSVCR71.dll
 0002:000007dc       __imp__wcslen              0041b7dc     msvcrt:MSVCR71.dll
 0002:000007e0       __imp__time                0041b7e0     msvcrt:MSVCR71.dll
 0002:000007e4       \177MSVCR71_NULL_THUNK_DATA 0041b7e4     msvcrt:MSVCR71.dll
 0002:000007e8       __imp__SysFreeString@4     0041b7e8     oleaut32:OLEAUT32.dll
 0002:000007ec       \177OLEAUT32_NULL_THUNK_DATA 0041b7ec     oleaut32:OLEAUT32.dll
 0002:000007f0       __imp_?InsertUserChat@CRichEditMessage@@UAE_NPB_W00K@Z 0041b7f0     ShareControl:ShareControl.dll
 0002:000007f4       __imp_?InsertExpression@CRichEditMessage@@UAE_NPB_W0@Z 0041b7f4     ShareControl:ShareControl.dll
 0002:000007f8       __imp_?InsertExpression@CRichEditMessage@@UAE_NPB_W0_N@Z 0041b7f8     ShareControl:ShareControl.dll
 0002:000007fc       __imp_?InsertExpression@CRichEditMessage@@UAE_NPB_W00@Z 0041b7fc     ShareControl:ShareControl.dll
 0002:00000800       __imp_?InsertCustomString@CRichEditMessage@@UAE_NPB_WK@Z 0041b800     ShareControl:ShareControl.dll
 0002:00000804       __imp_?InsertCustomString@CRichEditMessage@@UAE_NPB_WKK@Z 0041b804     ShareControl:ShareControl.dll
 0002:00000808       __imp_?InsertAfficheString@CRichEditMessage@@UAE_NPB_W@Z 0041b808     ShareControl:ShareControl.dll
 0002:0000080c       __imp_?InsertPromptString@CRichEditMessage@@UAE_NPB_W@Z 0041b80c     ShareControl:ShareControl.dll
 0002:00000810       __imp_?InsertWhisperChat@CRichEditMessage@@UAE_NPB_W0K_N@Z 0041b810     ShareControl:ShareControl.dll
 0002:00000814       __imp_?InsertNormalString@CRichEditMessage@@UAE_NPB_W@Z 0041b814     ShareControl:ShareControl.dll
 0002:00000818       __imp_?InsertUserOffLine@CRichEditMessage@@UAE_NPB_W@Z 0041b818     ShareControl:ShareControl.dll
 0002:0000081c       __imp_?InsertUserLeave@CRichEditMessage@@UAE_NPB_W@Z 0041b81c     ShareControl:ShareControl.dll
 0002:00000820       __imp_?InsertUserEnter@CRichEditMessage@@UAE_NPB_W@Z 0041b820     ShareControl:ShareControl.dll
 0002:00000824       __imp_?QueryInterface@CRichEditMessage@@UAEPAXABU_GUID@@K@Z 0041b824     ShareControl:ShareControl.dll
 0002:00000828       __imp_?Release@CRichEditMessage@@UAEXXZ 0041b828     ShareControl:ShareControl.dll
 0002:0000082c       __imp_?InsertWhisperChat@CRichEditMessage@@UAE_NPB_W0K_NABU_SYSTEMTIME@@@Z 0041b82c     ShareControl:ShareControl.dll
 0002:00000830       __imp_??0CRichEditMessage@@QAE@XZ 0041b830     ShareControl:ShareControl.dll
 0002:00000834       __imp_?PreSubclassWindow@CRichEditMessage@@MAEXXZ 0041b834     ShareControl:ShareControl.dll
 0002:00000838       __imp_?InsertSystemString@CRichEditMessage@@UAE_NPB_W@Z 0041b838     ShareControl:ShareControl.dll
 0002:0000083c       __imp_?InsertUserTrumpet@CRichEditMessage@@UAE_NPB_W0K@Z 0041b83c     ShareControl:ShareControl.dll
 0002:00000840       __imp_?GetInstance@CExpressionManager@@SAPAV1@XZ 0041b840     ShareControl:ShareControl.dll
 0002:00000844       __imp_?SetExpressionManager@CRichEditMessage@@QAE_NPAVCExpressionManager@@K@Z 0041b844     ShareControl:ShareControl.dll
 0002:00000848       __imp_??0CInformation@@QAE@PAVCWnd@@@Z 0041b848     ShareControl:ShareControl.dll
 0002:0000084c       __imp_?ShowMessageBox@CInformation@@QAEHPB_WII@Z 0041b84c     ShareControl:ShareControl.dll
 0002:00000850       __imp_??1CInformation@@UAE@XZ 0041b850     ShareControl:ShareControl.dll
 0002:00000854       __imp_?InsertUserChat@CRichEditMessage@@UAE_NPB_W0K@Z 0041b854     ShareControl:ShareControl.dll
 0002:00000858       __imp_??1CRichEditMessage@@UAE@XZ 0041b858     ShareControl:ShareControl.dll
 0002:0000085c       __imp_?InsertUserTyphon@CRichEditMessage@@UAE_NPB_W0K@Z 0041b85c     ShareControl:ShareControl.dll
 0002:00000860       __imp_?GetMessageMap@CRichEditMessage@@MBEPBUAFX_MSGMAP@@XZ 0041b860     ShareControl:ShareControl.dll
 0002:00000864       \177ShareControl_NULL_THUNK_DATA 0041b864     ShareControl:ShareControl.dll
 0002:00000868       __imp_??1CSkinButton@@UAE@XZ 0041b868     SkinControl:SkinControl.dll
 0002:0000086c       __imp_??0CSkinButton@@QAE@XZ 0041b86c     SkinControl:SkinControl.dll
 0002:00000870       __imp_?GetMessageMap@CSkinButton@@MBEPBUAFX_MSGMAP@@XZ 0041b870     SkinControl:SkinControl.dll
 0002:00000874       __imp_?GetInstance@CSkinResourceManager@@SAPAV1@XZ 0041b874     SkinControl:SkinControl.dll
 0002:00000878       __imp_?GetDefaultFont@CSkinResourceManager@@QAEAAVCFont@@XZ 0041b878     SkinControl:SkinControl.dll
 0002:0000087c       __imp_?SetButtonImage@CSkinButton@@QAE_NIPAUHINSTANCE__@@_N1@Z 0041b87c     SkinControl:SkinControl.dll
 0002:00000880       __imp_?InsertString@CSkinRichEdit@@QAE_NPB_WK@Z 0041b880     SkinControl:SkinControl.dll
 0002:00000884       \177SkinControl_NULL_THUNK_DATA 0041b884     SkinControl:SkinControl.dll
 0002:00000888       __imp__GetSystemMetrics@4  0041b888     user32:USER32.dll
 0002:0000088c       __imp__PostMessageW@16     0041b88c     user32:USER32.dll
 0002:00000890       __imp__SetTimer@16         0041b890     user32:USER32.dll
 0002:00000894       __imp__KillTimer@8         0041b894     user32:USER32.dll
 0002:00000898       __imp__LoadIconW@8         0041b898     user32:USER32.dll
 0002:0000089c       __imp__GetSysColor@4       0041b89c     user32:USER32.dll
 0002:000008a0       __imp__EnableWindow@8      0041b8a0     user32:USER32.dll
 0002:000008a4       __imp__GetParent@4         0041b8a4     user32:USER32.dll
 0002:000008a8       __imp__InvalidateRect@12   0041b8a8     user32:USER32.dll
 0002:000008ac       __imp__GetClientRect@8     0041b8ac     user32:USER32.dll
 0002:000008b0       __imp__GetWindowRect@8     0041b8b0     user32:USER32.dll
 0002:000008b4       __imp__LoadCursorW@8       0041b8b4     user32:USER32.dll
 0002:000008b8       __imp__SetCursor@4         0041b8b8     user32:USER32.dll
 0002:000008bc       __imp__CopyRect@8          0041b8bc     user32:USER32.dll
 0002:000008c0       __imp__SetRect@20          0041b8c0     user32:USER32.dll
 0002:000008c4       __imp__SetCapture@4        0041b8c4     user32:USER32.dll
 0002:000008c8       __imp__EndDeferWindowPos@4 0041b8c8     user32:USER32.dll
 0002:000008cc       __imp__DeferWindowPos@32   0041b8cc     user32:USER32.dll
 0002:000008d0       __imp__BeginDeferWindowPos@4 0041b8d0     user32:USER32.dll
 0002:000008d4       __imp__ReleaseCapture@0    0041b8d4     user32:USER32.dll
 0002:000008d8       __imp__GetCursorPos@4      0041b8d8     user32:USER32.dll
 0002:000008dc       __imp__IsIconic@4          0041b8dc     user32:USER32.dll
 0002:000008e0       __imp__SystemParametersInfoW@16 0041b8e0     user32:USER32.dll
 0002:000008e4       __imp__ShowWindow@8        0041b8e4     user32:USER32.dll
 0002:000008e8       __imp__LoadBitmapW@8       0041b8e8     user32:USER32.dll
 0002:000008ec       __imp__PtInRect@12         0041b8ec     user32:USER32.dll
 0002:000008f0       __imp__TabbedTextOutW@32   0041b8f0     user32:USER32.dll
 0002:000008f4       __imp__DrawTextW@20        0041b8f4     user32:USER32.dll
 0002:000008f8       __imp__DrawTextExW@24      0041b8f8     user32:USER32.dll
 0002:000008fc       __imp__GrayStringW@36      0041b8fc     user32:USER32.dll
 0002:00000900       __imp__UnregisterClassW@8  0041b900     user32:USER32.dll
 0002:00000904       __imp__UnregisterClassA@8  0041b904     user32:USER32.dll
 0002:00000908       __imp__SendMessageW@16     0041b908     user32:USER32.dll
 0002:0000090c       __imp__ScreenToClient@8    0041b90c     user32:USER32.dll
 0002:00000910       \177USER32_NULL_THUNK_DATA 0041b910     user32:USER32.dll
 0002:00000914       __imp_?LoadFromResource@CBitImage@@QAEXPAUHINSTANCE__@@PB_W@Z 0041b914     WHImage:WHImage.dll
 0002:00000918       __imp_??0CPngImageEx@@QAE@XZ 0041b918     WHImage:WHImage.dll
 0002:0000091c       __imp_??0CDFontEx@@QAE@XZ  0041b91c     WHImage:WHImage.dll
 0002:00000920       __imp_??0CBitImage@@QAE@XZ 0041b920     WHImage:WHImage.dll
 0002:00000924       __imp_?TransDrawImage@CBitImage@@QAE_NPAVCDC@@HHK@Z 0041b924     WHImage:WHImage.dll
 0002:00000928       __imp_?LoadFromResource@CBitImage@@QAEXPAUHINSTANCE__@@I@Z 0041b928     WHImage:WHImage.dll
 0002:0000092c       __imp_?CreateFontW@CDFontEx@@QAEXPAVCWnd@@PB_WHH@Z 0041b92c     WHImage:WHImage.dll
 0002:00000930       __imp_??1CBitImage@@UAE@XZ 0041b930     WHImage:WHImage.dll
 0002:00000934       __imp_??1CDFontEx@@QAE@XZ  0041b934     WHImage:WHImage.dll
 0002:00000938       __imp_??1CPngImageEx@@UAE@XZ 0041b938     WHImage:WHImage.dll
 0002:0000093c       __imp_?LoadImageW@CPngImage@@QAE_NPAUHINSTANCE__@@PB_W@Z 0041b93c     WHImage:WHImage.dll
 0002:00000940       __imp_??0CPngImage@@QAE@XZ 0041b940     WHImage:WHImage.dll
 0002:00000944       __imp_??1CPngImage@@UAE@XZ 0041b944     WHImage:WHImage.dll
 0002:00000948       \177WHImage_NULL_THUNK_DATA 0041b948     WHImage:WHImage.dll
 0002:0000096c       ??_7CCardResource@@6B@     0041b96c     CardControl.obj
 0002:00000970       ??_7CCardControl@@6B@      0041b970     CardControl.obj
 0002:00000974       ??_C@_1BM@EKJKDHBA@?$AAG?$AAA?$AAM?$AAE?$AA_?$AAO?$AAU?$AAT?$AA_?$AAC?$AAA?$AAR?$AAD?$AA?$AA@ 0041b974     CardControl.obj
 0002:00000990       ??_C@_1CA@OKKBFPP@?$AAG?$AAA?$AAM?$AAE?$AA_?$AAC?$AAA?$AAR?$AAD?$AA_?$AAS?$AAM?$AAA?$AAL?$AAL?$AA?$AA@ 0041b990     CardControl.obj
 0002:000009b0       ??_C@_1BE@BIACFEHC@?$AAG?$AAA?$AAM?$AAE?$AA_?$AAC?$AAA?$AAR?$AAD?$AA?$AA@ 0041b9b0     CardControl.obj
 0002:000009c4       ??_C@_17PMGKNIMI@?$AAP?$AAN?$AAG?$AA?$AA@ 0041b9c4     CardControl.obj
 0002:000009cc       ??_C@_1CA@FELHMNAL@?$AAG?$AAA?$AAM?$AAE?$AA_?$AAC?$AAA?$AAR?$AAD?$AA_?$AAR?$AAI?$AAG?$AAH?$AAT?$AA?$AA@ 0041b9cc     CardControl.obj
 0002:000009ec       ??_C@_1BO@PNGMAPFF@?$AAG?$AAA?$AAM?$AAE?$AA_?$AAC?$AAA?$AAR?$AAD?$AA_?$AAL?$AAE?$AAF?$AAT?$AA?$AA@ 0041b9ec     CardControl.obj
 0002:00000a10       __real@3ff0000000000000    0041ba10     CardControl.obj
 0002:00000a18       __real@3ff8000000000000    0041ba18     CardControl.obj
 0002:00000a20       ?messageMap@CChatEdit@@1UAFX_MSGMAP@@B 0041ba20     ChatEdit.obj
 0002:00000a28       ?_messageEntries@CChatEdit@@0QBUAFX_MSGMAP_ENTRY@@B 0041ba28     ChatEdit.obj
 0002:00000ab8       ??_7CGdiObject@@6B@        0041bab8     ChatEdit.obj
 0002:00000acc       ??_7CFont@@6B@             0041bacc     ChatEdit.obj
 0002:00000ae0       ??_7CRichEditCtrl@@6B@     0041bae0     ChatEdit.obj
 0002:00000c20       ??_C@_15NHPHCOCM@?$FL?$ILOS?$AA?$AA@ 0041bc20     ChatEdit.obj
 0002:00000c28       ??_7CChatEdit@@6B@         0041bc28     ChatEdit.obj
 0002:00000d68       ??_C@_1BK@BPCHPBFI@?$AAD?$AAI?$AAS?$AAP?$AAL?$AAA?$AAY?$AA_?$AAB?$AAA?$AAC?$AAK?$AA?$AA@ 0041bd68     ChatEdit.obj
 0002:00000d88       ??_7CChatMessage@@6BIStringMessage@@@ 0041bd88     ChatMessage.obj
 0002:00000dd8       ??_7CChatMessage@@6BCSkinRichEdit@@@ 0041bdd8     ChatMessage.obj
 0002:00000f1c       ??_C@_1BC@GHALFDAC@0?$BA?$AA?$CF?$AAs0?$BB?$IL?t?$PP?$BK?$AA?$CF?$AAs?$AA?$AA@ 0041bf1c     ChatMessage.obj
 0002:00000f30       ??_C@_11LOCGONAA@?$AA?$AA@ 0041bf30     ChatMessage.obj
 0002:00000f38       ??_7CGameClientApp@@6B@    0041bf38     GameClient.obj
 0002:00001000       ?_messageEntries@CGameClientEngine@@0QBUAFX_MSGMAP_ENTRY@@B 0041c000     GameClientEngine.obj
 0002:000011c8       ??_7CGameClientEngine@@6BIGameFrameEngine@@@ 0041c1c8     GameClientEngine.obj
 0002:00001200       ??_7CGameClientEngine@@6BCWnd@@@ 0041c200     GameClientEngine.obj
 0002:00001340       ??_C@_1BG@DNMIJDGG@?$AAB?$AAA?$AAC?$AAK?$AA_?$AAM?$AAU?$AAS?$AAI?$AAC?$AA?$AA@ 0041c340     GameClientEngine.obj
 0002:00001358       ??_C@_17LFHBDFCA@e?$JHW0N?$DL?$AA?$AA@ 0041c358     GameClientEngine.obj
 0002:00001360       ??_C@_1BG@NPEEHOHA@?$AAG?$AAA?$AAM?$AAE?$AA_?$AAS?$AAT?$AAA?$AAR?$AAT?$AA?$AA@ 0041c360     GameClientEngine.obj
 0002:00001378       ??_C@_1BO@BHHGMICJ@?$AAS?$AAC?$AAO?$AAR?$AAE?$AA_?$AAN?$AAO?$AAN?$AAE?$AA_?$AAB?$AAO?$AAY?$AA?$AA@ 0041c378     GameClientEngine.obj
 0002:00001398       ??_C@_1CA@EKLKBHJK@?$AAS?$AAC?$AAO?$AAR?$AAE?$AA_?$AAN?$AAO?$AAN?$AAE?$AA_?$AAG?$AAI?$AAR?$AAL?$AA?$AA@ 0041c398     GameClientEngine.obj
 0002:000013b8       ??_C@_1BI@FLJPFAID@?$AAS?$AAC?$AAO?$AAR?$AAE?$AA_?$AA3?$AA_?$AAB?$AAO?$AAY?$AA?$AA@ 0041c3b8     GameClientEngine.obj
 0002:000013d0       ??_C@_1BK@OAIGBEGG@?$AAS?$AAC?$AAO?$AAR?$AAE?$AA_?$AA3?$AA_?$AAG?$AAI?$AAR?$AAL?$AA?$AA@ 0041c3d0     GameClientEngine.obj
 0002:000013ec       ??_C@_1BI@MADKBMOM@?$AAS?$AAC?$AAO?$AAR?$AAE?$AA_?$AA2?$AA_?$AAB?$AAO?$AAY?$AA?$AA@ 0041c3ec     GameClientEngine.obj
 0002:00001404       ??_C@_1BK@HNIJPFBA@?$AAS?$AAC?$AAO?$AAR?$AAE?$AA_?$AA2?$AA_?$AAG?$AAI?$AAR?$AAL?$AA?$AA@ 0041c404     GameClientEngine.obj
 0002:00001420       ??_C@_1BI@LHKEMOBM@?$AAS?$AAC?$AAO?$AAR?$AAE?$AA_?$AA1?$AA_?$AAB?$AAO?$AAY?$AA?$AA@ 0041c420     GameClientEngine.obj
 0002:00001438       ??_C@_1BK@BOINAML@?$AAS?$AAC?$AAO?$AAR?$AAE?$AA_?$AA1?$AA_?$AAG?$AAI?$AAR?$AAL?$AA?$AA@ 0041c438     GameClientEngine.obj
 0002:00001454       ??_C@_1CA@BMKFPBNP@?$AAM?$AAI?$AAS?$AAS?$AAI?$AAL?$AAE?$AA_?$AAC?$AAA?$AAR?$AAD?$AA_?$AA?$CF?$AAs?$AA?$AA@ 0041c454     GameClientEngine.obj
 0002:00001474       ??_C@_1BK@NPFFHNCL@?$AAB?$AAO?$AAM?$AAB?$AA_?$AAC?$AAA?$AAR?$AAD?$AA_?$AA?$CF?$AAs?$AA?$AA@ 0041c474     GameClientEngine.obj
 0002:00001490       ??_C@_1CC@KHNJCFFC@?$AAF?$AAO?$AAU?$AAR?$AA_?$AAT?$AAA?$AAK?$AAE?$AA_?$AAT?$AAW?$AAO?$AA_?$AA?$CF?$AAs?$AA?$AA@ 0041c490     GameClientEngine.obj
 0002:000014b4       ??_C@_1CC@IMAGFHH@?$AAF?$AAO?$AAU?$AAR?$AA_?$AAT?$AAA?$AAK?$AAE?$AA_?$AAO?$AAN?$AAE?$AA_?$AA?$CF?$AAs?$AA?$AA@ 0041c4b4     GameClientEngine.obj
 0002:000014d8       ??_C@_1CE@FDCBHGGN@?$AAT?$AAH?$AAR?$AAE?$AAE?$AA_?$AAT?$AAA?$AAK?$AAE?$AA_?$AAT?$AAW?$AAO?$AA_?$AA?$CF?$AAs?$AA?$AA@ 0041c4d8     GameClientEngine.obj
 0002:000014fc       ??_C@_1CE@PMDIDGEI@?$AAT?$AAH?$AAR?$AAE?$AAE?$AA_?$AAT?$AAA?$AAK?$AAE?$AA_?$AAO?$AAN?$AAE?$AA_?$AA?$CF?$AAs?$AA?$AA@ 0041c4fc     GameClientEngine.obj
 0002:00001520       ??_C@_1CE@MHCJNHIJ@?$AAT?$AAH?$AAR?$AAE?$AAE?$AA_?$AAO?$AAN?$AAE?$AA_?$AAL?$AAI?$AAN?$AAE?$AA_?$AA?$CF?$AAs?$AA?$AA@ 0041c520     GameClientEngine.obj
 0002:00001544       ??_C@_1BM@IGHMDKOA@?$AAT?$AAH?$AAR?$AAE?$AAE?$AA_?$AAL?$AAI?$AAN?$AAE?$AA_?$AA?$CF?$AAs?$AA?$AA@ 0041c544     GameClientEngine.obj
 0002:00001560       ??_C@_1BO@BIJGEMLK@?$AAD?$AAO?$AAU?$AAB?$AAL?$AAE?$AA_?$AAL?$AAI?$AAN?$AAE?$AA_?$AA?$CF?$AAs?$AA?$AA@ 0041c560     GameClientEngine.obj
 0002:00001580       ??_C@_1BO@DNOLLHIK@?$AAS?$AAI?$AAN?$AAG?$AAL?$AAE?$AA_?$AAL?$AAI?$AAN?$AAE?$AA_?$AA?$CF?$AAs?$AA?$AA@ 0041c580     GameClientEngine.obj
 0002:000015a0       ??_C@_1BC@OONENLNA@?$AAT?$AAH?$AAR?$AAE?$AAE?$AA_?$AA?$CF?$AAs?$AA?$AA@ 0041c5a0     GameClientEngine.obj
 0002:000015b4       ??_C@_1BE@DKANJBBD@?$AAD?$AAO?$AAU?$AAB?$AAL?$AAE?$AA_?$AA?$CF?$AAs?$AA?$AA@ 0041c5b4     GameClientEngine.obj
 0002:000015c8       ??_C@_1BK@BFMHEFBC@?$AAS?$AAI?$AAN?$AAG?$AAL?$AAE?$AA_?$AA?$CF?$AAd?$AA_?$AA?$CF?$AAs?$AA?$AA@ 0041c5c8     GameClientEngine.obj
 0002:000015e4       ??_C@_17LJGOBNJH@?$AAB?$AAO?$AAY?$AA?$AA@ 0041c5e4     GameClientEngine.obj
 0002:000015ec       ??_C@_19MGEFBMOP@?$AAG?$AAI?$AAR?$AAL?$AA?$AA@ 0041c5ec     GameClientEngine.obj
 0002:000015f8       ??_C@_1BG@PDGFEKOK@?$AA?$CF?$AAs?$AA_?$AAL?$AAI?$AAN?$AAE?$AA_?$AA?$CF?$AAs?$AA?$AA@ 0041c5f8     GameClientEngine.obj
 0002:00001610       ??_C@_1M@NCGGNINM@?$AAT?$AAH?$AAR?$AAE?$AAE?$AA?$AA@ 0041c610     GameClientEngine.obj
 0002:0000161c       ??_C@_1O@NEHDDMNH@?$AAD?$AAO?$AAU?$AAB?$AAL?$AAE?$AA?$AA@ 0041c61c     GameClientEngine.obj
 0002:0000162c       ??_C@_1O@KPJPHLOA@?$AAS?$AAI?$AAN?$AAG?$AAL?$AAE?$AA?$AA@ 0041c62c     GameClientEngine.obj
 0002:0000163c       ??_C@_19PEFMBJFB@?$AAB?$AAO?$AAM?$AAB?$AA?$AA@ 0041c63c     GameClientEngine.obj
 0002:00001648       ??_C@_1M@EAHIIFNC@?$AAP?$AAL?$AAA?$AAN?$AAE?$AA?$AA@ 0041c648     GameClientEngine.obj
 0002:00001654       ??_C@_1BK@HALPCGAC@?$AAO?$AAU?$AAT?$AA_?$AAC?$AAA?$AAR?$AAD?$AA_?$AAB?$AAO?$AAY?$AA?$AA@ 0041c654     GameClientEngine.obj
 0002:00001670       ??_C@_1BM@HLHIECEF@?$AAO?$AAU?$AAT?$AA_?$AAC?$AAA?$AAR?$AAD?$AA_?$AAG?$AAI?$AAR?$AAL?$AA?$AA@ 0041c670     GameClientEngine.obj
 0002:0000168c       ??_C@_1BM@JGBAOFFE@?$AAP?$AAA?$AAS?$AAS?$AA_?$AAC?$AAA?$AAR?$AAD?$AA_?$AAB?$AAO?$AAY?$AA?$AA@ 0041c68c     GameClientEngine.obj
 0002:000016a8       ??_C@_1BO@JFPEMNDC@?$AAP?$AAA?$AAS?$AAS?$AA_?$AAC?$AAA?$AAR?$AAD?$AA_?$AAG?$AAI?$AAR?$AAL?$AA?$AA@ 0041c6a8     GameClientEngine.obj
 0002:000016c8       ??_C@_1CG@HDNNCGL@?$AAB?$AAT?$AA_?$AAS?$AAO?$AAR?$AAT?$AA_?$AAC?$AAA?$AAR?$AAD?$AA_?$AAC?$AAO?$AAU?$AAN?$AAT?$AA?$AA@ 0041c6c8     GameClientEngine.obj
 0002:000016f0       ??_C@_1CG@CPNKALBI@?$AAB?$AAT?$AA_?$AAS?$AAO?$AAR?$AAT?$AA_?$AAC?$AAA?$AAR?$AAD?$AA_?$AAO?$AAR?$AAD?$AAE?$AAR?$AA?$AA@ 0041c6f0     GameClientEngine.obj
 0002:00001718       ??_C@_1BI@INIGBABD@?$AAB?$AAA?$AAN?$AAK?$AAE?$AAR?$AA_?$AAI?$AAN?$AAF?$AAO?$AA?$AA@ 0041c718     GameClientEngine.obj
 0002:00001730       ??_C@_13FPIHKDPF@?$PP?$BK?$AA?$AA@ 0041c730     GameClientEngine.obj
 0002:00001734       ??_C@_1BO@MNMCELAO@?$GA?$KIkcW?$CIk?T?$IN?$FLN?9?$PP?$AMxn?$FL?$JO?$IJ?$IB_?3?$JA?$AAT?$BH?$PP?$BP?$AA?$AA@ 0041c734     GameClientEngine.obj
 0002:00001758       ??_C@_1EA@PPGPGFFO@?$GA?$KIkcW?$CIk?T?$IN?$FLN?9?$PP?$AM_?3?$IIL?$JA?$AAQ?z?2?$AGO?$BK?$II?$KL?$HM?$PL?$HO?$NPbX?$HL?$KB?$PP?$AM?$IP?$JD@ 0041c758     GameClientEngine.obj
 0002:00001798       ??_C@_1DA@EINCGDLP@?$GA?$KIkcW?$CIn8b?$APN?9?$PP?$AM_?3?$IIL?$JA?$AAQ?z?2?$AG?$II?$KLbcR?$AG?$PP?$AMxn?$FL?$JO?$IJ?$IB_?3@ 0041c798     GameClientEngine.obj
 0002:000017c8       ??_C@_1BG@GHJFAFCK@?$AAC?$AAO?$AAU?$AAN?$AAT?$AA_?$AAW?$AAA?$AAR?$AAN?$AA?$AA@ 0041c7c8     GameClientEngine.obj
 0002:000017e0       ??_C@_1BM@JNKJGOJN@?$AAG?$AAA?$AAM?$AAE?$AA_?$AAC?$AAO?$AAN?$AAC?$AAL?$AAU?$AAD?$AAE?$AA?$AA@ 0041c7e0     GameClientEngine.obj
 0002:000017fc       ??_C@_1BE@IPGDKJAN@?$AAG?$AAA?$AAM?$AAE?$AA_?$AAL?$AAO?$AAS?$AAE?$AA?$AA@ 0041c7fc     GameClientEngine.obj
 0002:00001810       ??_C@_1BC@FJLCDJCH@?$AAG?$AAA?$AAM?$AAE?$AA_?$AAW?$AAI?$AAN?$AA?$AA@ 0041c810     GameClientEngine.obj
 0002:00001824       ??_C@_1BK@PAGJOIDI@0?$BA?$AA?$CF?$AAs0?$BB?$AA?3?$AA?7?$AA?$CF?$AA?$CL?$AAI?$AA6?$AA4?$AAd?$AA?$AA@ 0041c824     GameClientEngine.obj
 0002:00001840       ??_C@_1BK@KEPIJMA@?$AA?$CF?$AAs?$AA?5?$PP?$BK?$AA?5?$AA?$CF?$AAI?$AA6?$AA4?$AAd?$AA?5?$AA?6?$AA?$AA@ 0041c840     GameClientEngine.obj
 0002:0000185c       ??_C@_1BG@CJOMKFOA@g?0?2?$EA?$HO?Sg_?$AA?0b?$BA?$HO?i?$HO?$NP?$IL?$KB?$AA?3?$AA?$AA@ 0041c85c     GameClientEngine.obj
 0002:00001874       ??_C@_1O@LCCIAAFH@?$HO?Sg_O?a?$GAo?$AA?5?$AA?6?$AA?$AA@ 0041c874     GameClientEngine.obj
 0002:00001884       ??_C@_1BE@FJPKJFIE@?$AAG?$AAA?$AAM?$AAE?$AA_?$AAW?$AAA?$AAR?$AAN?$AA?$AA@ 0041c884     GameClientEngine.obj
 0002:000018b8       ?_messageEntries@CGameClientView@@0QBUAFX_MSGMAP_ENTRY@@B 0041c8b8     GameClientView.obj
 0002:00001b28       __real@3fe0000000000000    0041cb28     GameClientView.obj
 0002:00001b30       __real@3fb1111111111111    0041cb30     GameClientView.obj
 0002:00001b38       ??_C@_1M@OBKMGAH@?$AA?$CF?$AAI?$AA6?$AA4?$AAd?$AA?$AA@ 0041cb38     GameClientView.obj
 0002:00001b44       ??_7CBrush@@6B@            0041cb44     GameClientView.obj
 0002:00001b58       ??_7CEdit@@6B@             0041cb58     GameClientView.obj
 0002:00001c94       ??_7CGameClientView@@6B@   0041cc94     GameClientView.obj
 0002:00001ca4       ??_7CGameClientView@@6BIGameFrameView@@@ 0041cca4     GameClientView.obj
 0002:00001cd0       ??_7CGameClientView@@6BCWnd@@@ 0041ccd0     GameClientView.obj
 0002:00001e28       ??_C@_1BM@DGFDNNFF@?$AAB?$AAT?$AA_?$AAS?$AAH?$AAO?$AAW?$AA_?$AAS?$AAC?$AAO?$AAR?$AAE?$AA?$AA@ 0041ce28     GameClientView.obj
 0002:00001e44       ??_C@_1BM@DBPDIENG@?$AAD?$AAI?$AAS?$AAP?$AAA?$AAT?$AAC?$AAH?$AA_?$AAC?$AAA?$AAR?$AAD?$AA?$AA@ 0041ce44     GameClientView.obj
 0002:00001e60       ??_C@_1BG@BKOOBPGM@?$AAT?$AAI?$AAM?$AAE?$AA_?$AAL?$AAI?$AAG?$AAH?$AAT?$AA?$AA@ 0041ce60     GameClientView.obj
 0002:00001e78       ??_C@_1BK@KGNHHIGF@?$AAC?$AAA?$AAR?$AAT?$AAO?$AAO?$AAN?$AA_?$AAT?$AAI?$AAM?$AAE?$AA?$AA@ 0041ce78     GameClientView.obj
 0002:00001e94       ??_C@_1BI@IDFAMNHG@?$AAT?$AAI?$AAM?$AAE?$AA_?$AAN?$AAU?$AAM?$AAB?$AAE?$AAR?$AA?$AA@ 0041ce94     GameClientView.obj
 0002:00001eac       ??_C@_1BE@DPBHLGMH@?$AAT?$AAI?$AAM?$AAE?$AA_?$AAB?$AAA?$AAC?$AAK?$AA?$AA@ 0041ceac     GameClientView.obj
 0002:00001ec0       ??_C@_1BA@INBMCOAP@?$AAM?$AAA?$AAC?$AAH?$AAI?$AAN?$AAE?$AA?$AA@ 0041cec0     GameClientView.obj
 0002:00001ed0       ??_C@_1CI@NGEJHPJJ@?$AAR?$AAE?$AAM?$AAN?$AAA?$AAN?$AAT?$AA_?$AAC?$AAA?$AAR?$AAD?$AA_?$AAN?$AAU?$AAM?$AAB?$AAE?$AAR?$AA?$AA@ 0041ced0     GameClientView.obj
 0002:00001ef8       ??_C@_1CG@POCJGKLH@?$AAC?$AAA?$AAR?$AAD?$AA_?$AAC?$AAO?$AAU?$AAN?$AAT?$AA_?$AAF?$AAR?$AAA?$AAM?$AAE?$AA_?$AA2?$AA?$AA@ 0041cef8     GameClientView.obj
 0002:00001f20       ??_C@_1CG@OMJMMFFJ@?$AAC?$AAA?$AAR?$AAD?$AA_?$AAC?$AAO?$AAU?$AAN?$AAT?$AA_?$AAF?$AAR?$AAA?$AAM?$AAE?$AA_?$AA1?$AA?$AA@ 0041cf20     GameClientView.obj
 0002:00001f48       ??_C@_1CK@OPLFMMPN@?$AAF?$AAL?$AAA?$AAG?$AA_?$AAB?$AAA?$AAN?$AAK?$AAE?$AAR?$AA_?$AAP?$AAL?$AAA?$AAY?$AAE?$AAR?$AA_?$AA2@ 0041cf48     GameClientView.obj
 0002:00001f74       ??_C@_1CG@IOBBCPPK@?$AAF?$AAL?$AAA?$AAG?$AA_?$AAB?$AAA?$AAN?$AAK?$AAE?$AAR?$AA_?$AAM?$AAY?$AAS?$AAE?$AAL?$AAF?$AA?$AA@ 0041cf74     GameClientView.obj
 0002:00001f9c       ??_C@_1CK@PNAAGDBD@?$AAF?$AAL?$AAA?$AAG?$AA_?$AAB?$AAA?$AAN?$AAK?$AAE?$AAR?$AA_?$AAP?$AAL?$AAA?$AAY?$AAE?$AAR?$AA_?$AA1@ 0041cf9c     GameClientView.obj
 0002:00001fc8       ??_C@_1BI@LFKFBDJH@?$AAC?$AAE?$AAL?$AAL?$AA_?$AAN?$AAU?$AAM?$AAB?$AAE?$AAR?$AA?$AA@ 0041cfc8     GameClientView.obj
 0002:00001fe0       ??_C@_1BE@INFIADEC@?$AAC?$AAH?$AAA?$AAT?$AA_?$AAB?$AAA?$AAC?$AAK?$AA?$AA@ 0041cfe0     GameClientView.obj
 0002:00001ff4       ??_C@_1CA@CJCIJHCM@?$AAG?$AAA?$AAM?$AAE?$AA_?$AAS?$AAC?$AAO?$AAR?$AAE?$AA_?$AAB?$AAA?$AAC?$AAK?$AA?$AA@ 0041cff4     GameClientView.obj
 0002:00002014       ??_C@_1BI@PJPDMCKA@?$AAC?$AAH?$AAA?$AAT?$AA_?$AAB?$AAU?$AAB?$AAB?$AAL?$AAE?$AA?$AA@ 0041d014     GameClientView.obj
 0002:0000202c       ??_C@_1CE@DBNBPINE@?$AAU?$AAS?$AAE?$AAR?$AA_?$AAF?$AAR?$AAA?$AAM?$AAE?$AA_?$AAM?$AAY?$AAS?$AAE?$AAL?$AAF?$AA?$AA@ 0041d02c     GameClientView.obj
 0002:00002050       ??_C@_1CE@IEBJMKLO@?$AAU?$AAS?$AAE?$AAR?$AA_?$AAF?$AAR?$AAA?$AAM?$AAE?$AA_?$AAP?$AAL?$AAA?$AAY?$AAE?$AAR?$AA?$AA@ 0041d050     GameClientView.obj
 0002:00002074       ??_C@_1CC@LOPKNLFB@?$AAV?$AAI?$AAE?$AAW?$AA_?$AAB?$AAA?$AAC?$AAK?$AA_?$AAB?$AAU?$AAT?$AAT?$AAO?$AAM?$AA?$AA@ 0041d074     GameClientView.obj
 0002:00002098       ??_C@_1BI@FBMBFKJI@?$AAV?$AAI?$AAE?$AAW?$AA_?$AAB?$AAA?$AAC?$AAK?$AA_?$AA2?$AA?$AA@ 0041d098     GameClientView.obj
 0002:000020b0       ??_C@_1M@KAKMLIHO@?$AAA?$AAr?$AAi?$AAa?$AAl?$AA?$AA@ 0041d0b0     GameClientView.obj
 0002:000020bc       ??_C@_1CG@BLGLGBOI@?$AAB?$AAT?$AA_?$AAC?$AAA?$AAL?$AAL?$AA_?$AAS?$AAC?$AAO?$AAR?$AAE?$AA_?$AAN?$AAO?$AAN?$AAE?$AA?$AA@ 0041d0bc     GameClientView.obj
 0002:000020e4       ??_C@_1CA@CKFOLAGM@?$AAB?$AAT?$AA_?$AAC?$AAA?$AAL?$AAL?$AA_?$AAS?$AAC?$AAO?$AAR?$AAE?$AA_?$AA3?$AA?$AA@ 0041d0e4     GameClientView.obj
 0002:00002104       ??_C@_1CA@JCOCNHAJ@?$AAB?$AAT?$AA_?$AAC?$AAA?$AAL?$AAL?$AA_?$AAS?$AAC?$AAO?$AAR?$AAE?$AA_?$AA2?$AA?$AA@ 0041d104     GameClientView.obj
 0002:00002124       ??_C@_1CA@IAFHHIOH@?$AAB?$AAT?$AA_?$AAC?$AAA?$AAL?$AAL?$AA_?$AAS?$AAC?$AAO?$AAR?$AAE?$AA_?$AA1?$AA?$AA@ 0041d124     GameClientView.obj
 0002:00002144       ??_C@_1BC@INAEIGOA@?$AAB?$AAT?$AA_?$AAE?$AAN?$AAT?$AAE?$AAR?$AA?$AA@ 0041d144     GameClientView.obj
 0002:00002158       ??_C@_1CA@EOGNPABL@?$AAB?$AAT?$AA_?$AAS?$AAT?$AAO?$AAP?$AA_?$AAT?$AAR?$AAU?$AAS?$AAT?$AAE?$AAE?$AA?$AA@ 0041d158     GameClientView.obj
 0002:00002178       ??_C@_1CC@LACINMJE@?$AAB?$AAT?$AA_?$AAS?$AAT?$AAA?$AAR?$AAT?$AA_?$AAT?$AAR?$AAU?$AAS?$AAT?$AAE?$AAE?$AA?$AA@ 0041d178     GameClientView.obj
 0002:0000219c       ??_C@_1BK@LLGNPMOD@?$AAB?$AAT?$AA_?$AAL?$AAA?$AAS?$AAT?$AA_?$AAT?$AAU?$AAR?$AAN?$AA?$AA@ 0041d19c     GameClientView.obj
 0002:000021b8       ??_C@_1BK@JKJINLOC@?$AAB?$AAT?$AA_?$AAH?$AAI?$AAD?$AAE?$AA_?$AAC?$AAH?$AAA?$AAT?$AA?$AA@ 0041d1b8     GameClientView.obj
 0002:000021d4       ??_C@_1BE@CPDIHEHK@?$AAB?$AAT?$AA_?$AAR?$AAE?$AAT?$AAU?$AAR?$AAN?$AA?$AA@ 0041d1d4     GameClientView.obj
 0002:000021e8       ??_C@_1BM@DKDLMLBM@?$AAB?$AAT?$AA_?$AAP?$AAL?$AAA?$AAY?$AA_?$AAA?$AAG?$AAA?$AAI?$AAN?$AA?$AA@ 0041d1e8     GameClientView.obj
 0002:00002204       ??_C@_1BM@LMPDLBDO@?$AAB?$AAT?$AA_?$AAO?$AAU?$AAT?$AA_?$AAP?$AAR?$AAO?$AAM?$AAP?$AAT?$AA?$AA@ 0041d204     GameClientView.obj
 0002:00002220       ??_C@_1BK@LPGOIFMJ@?$AAB?$AAT?$AA_?$AAP?$AAA?$AAS?$AAS?$AA_?$AAC?$AAA?$AAR?$AAD?$AA?$AA@ 0041d220     GameClientView.obj
 0002:0000223c       ??_C@_1BI@HOFANKDG@?$AAB?$AAT?$AA_?$AAO?$AAU?$AAT?$AA_?$AAC?$AAA?$AAR?$AAD?$AA?$AA@ 0041d23c     GameClientView.obj
 0002:00002254       ??_C@_1BC@FBEOINGN@?$AAB?$AAT?$AA_?$AAS?$AAT?$AAA?$AAR?$AAT?$AA?$AA@ 0041d254     GameClientView.obj
 0002:00002268       ??_C@_1BG@PGBNDIAE@?$AA0?$AA1?$AA2?$AA3?$AA4?$AA5?$AA6?$AA7?$AA8?$AA9?$AA?$AA@ 0041d268     GameClientView.obj
 0002:00002280       ??_C@_15KNBIKKIN@?$AA?$CF?$AAd?$AA?$AA@ 0041d280     GameClientView.obj
 0002:00002288       ??_C@_1BM@GKLNOACA@?$AAR?$AAE?$AAV?$AAE?$AAR?$AAS?$AAA?$AAL?$AA_?$AAC?$AAA?$AAR?$AAD?$AA?$AA@ 0041d288     GameClientView.obj
 0002:000022a4       ??_C@_15GANGMFKL@?$AA?$CF?$AAs?$AA?$AA@ 0041d2a4     GameClientView.obj
 0002:000022ac       ??_C@_1BK@EHBPJBAB@?$AAC?$AAA?$AAR?$AAT?$AAO?$AAO?$AAN?$AA_?$AAP?$AAL?$AAA?$AAN?$AA?$AA@ 0041d2ac     GameClientView.obj
 0002:000022c8       ??_C@_1BK@NHNPLIPE@?$AAC?$AAA?$AAR?$AAT?$AAO?$AAO?$AAN?$AA_?$AAB?$AAO?$AAM?$AAB?$AA?$AA@ 0041d2c8     GameClientView.obj
 0002:000022e4       ??_C@_1BO@KAJAKECB@?$AAC?$AAA?$AAR?$AAT?$AAO?$AAO?$AAN?$AA_?$AAR?$AAO?$AAC?$AAK?$AAE?$AAT?$AA?$AA@ 0041d2e4     GameClientView.obj
 0002:00002304       ??_C@_1M@FHNADEIL@?$AAL?$AAI?$AAG?$AAH?$AAT?$AA?$AA@ 0041d304     GameClientView.obj
 0002:00002310       ??_C@_1O@LAFGMALL@?$AAR?$AAO?$AAC?$AAK?$AAE?$AAT?$AA?$AA@ 0041d310     GameClientView.obj
 0002:00002320       ??_C@_1BE@EFFGJPAB@?$AAL?$AAA?$AAS?$AAT?$AA_?$AAT?$AAU?$AAR?$AAN?$AA?$AA@ 0041d320     GameClientView.obj
 0002:00002334       ??_C@_1CA@FDGBKNLD@?$AAW?$AAA?$AAI?$AAT?$AA_?$AAC?$AAA?$AAL?$AAL?$AA_?$AAS?$AAC?$AAO?$AAR?$AAE?$AA?$AA@ 0041d334     GameClientView.obj
 0002:00002354       ??_C@_1BE@KDBKDBML@?$AAU?$AAS?$AAE?$AAR?$AA_?$AAP?$AAA?$AAS?$AAS?$AA?$AA@ 0041d354     GameClientView.obj
 0002:00002368       ??_C@_1O@FJPEHHDN@?$AAW?$AAA?$AAR?$AAN?$AA_?$AA3?$AA?$AA@ 0041d368     GameClientView.obj
 0002:00002378       ??_C@_1BG@DMEKLHFD@?$AAW?$AAA?$AAR?$AAN?$AA_?$AAL?$AAI?$AAG?$AAH?$AAT?$AA?$AA@ 0041d378     GameClientView.obj
 0002:00002390       ??_C@_1O@OBEIBAFI@?$AAW?$AAA?$AAR?$AAN?$AA_?$AA2?$AA?$AA@ 0041d390     GameClientView.obj
 0002:000023a0       ??_C@_1O@PDPNLPLG@?$AAW?$AAA?$AAR?$AAN?$AA_?$AA1?$AA?$AA@ 0041d3a0     GameClientView.obj
 0002:000023b0       ??_C@_1BE@KABKDHEI@?$AAW?$AAA?$AAR?$AAN?$AA_?$AAB?$AAA?$AAC?$AAK?$AA?$AA@ 0041d3b0     GameClientView.obj
 0002:000023c4       ??_C@_1BG@IJJBONBG@?$AAC?$AAA?$AAL?$AAL?$AA_?$AAS?$AAC?$AAO?$AAR?$AAE?$AA?$AA@ 0041d3c4     GameClientView.obj
 0002:000023dc       ??_C@_1BO@GMCOKMCL@?$AAB?$AAT?$AA_?$AAC?$AAL?$AAO?$AAS?$AAE?$AA_?$AAS?$AAC?$AAO?$AAR?$AAE?$AA?$AA@ 0041d3dc     GameClientView.obj
 0002:000023fc       ??_C@_1BM@MIHJNGGA@?$AAH?$AAI?$AAS?$AAT?$AAO?$AAR?$AAY?$AA_?$AAS?$AAC?$AAO?$AAR?$AAE?$AA?$AA@ 0041d3fc     GameClientView.obj
 0002:00002418       ??_C@_1BI@EDHEPFHG@?$AAV?$AAI?$AAE?$AAW?$AA_?$AAB?$AAA?$AAC?$AAK?$AA_?$AA1?$AA?$AA@ 0041d418     GameClientView.obj
 0002:00002430       ??_C@_1CO@GKMJHMNH@?$AAU?$AAS?$AAE?$AAR?$AA_?$AAF?$AAR?$AAA?$AAM?$AAE?$AA_?$AAP?$AAL?$AAA?$AAY?$AAE?$AAR?$AA_?$AAG?$AAA@ 0041d430     GameClientView.obj
 0002:00002460       ??_C@_1BK@BEDKMLNH@?$AAC?$AAA?$AAR?$AAT?$AAO?$AAO?$AAN?$AA_?$AAL?$AAI?$AAN?$AAE?$AA?$AA@ 0041d460     GameClientView.obj
 0002:0000247c       ??_C@_1BO@CHNNIKJB@?$AAG?$AAA?$AAM?$AAE?$AA_?$AAS?$AAH?$AAU?$AAN?$AAZ?$AAI?$AA_?$AA?$CF?$AAd?$AA?$AA@ 0041d47c     GameClientView.obj
 0002:0000249c       ??_C@_1CO@CEBIFHII@?$GA?$KIv?$IE?$IL?t?$IL?$NN?$JA?$BP?$FO?$KGY?$CK_?kN?$IG?$PP?$AM?$IL?wWPN?$ALgeU?$JNgo?$ID6O?$BB?$GAoN?$AL@ 0041d49c     GameClientView.obj
 0002:000024cc       ??_C@_1DO@MEAKMJHA@b?$LBkI?$PP?$AM?$GA?$KIl?$KBg?7n8b?$APS?Q?$IK?$AAv?$IEgC?$JGP?$PP?$AM?$IC?e?$JH?$AA?$IJ?$IB?$FO?4R?$KJ?$PP?$AM@ 0041d4cc     GameClientView.obj
 0002:0000250c       ??_C@_1CI@LOKINNEE@b?$LBkI?$PP?$AM_SRMkdn8b?$APb?$DP?$JF?ty?$IBkbu?$CIb7b?$DP?$JF?t?$IAJY?$CJ?$PP?$AB?$AA?$AA@ 0041d50c     GameClientView.obj
 0002:00002534       ??_C@_1BE@IMPMBJP@?$AA?6?5?$BM?$AA?$CF?$AAs?5?$BNS?Q?$JA?$ABY1?$IN?$CF?$AA?$AA@ 0041d534     GameClientView.obj
 0002:00002548       ??_C@_1DC@JKKKMDOK@b?$LBkI?$PP?$AM?$GA?$KI?$IP?$JDQev?$IE?$IAJY?$CJQ?$IF?$FL?$LJ?$IP?G?$JF?$HP?$PP?$AM?$IL?w?$HP?$CJw?mT?$AOQ?$INS?Q@ 0041d548     GameClientView.obj
 0002:0000257c       ??_C@_1BK@HKHJIOCC@?$AAB?$AAT?$AA_?$AAS?$AAH?$AAO?$AAW?$AA_?$AAC?$AAH?$AAA?$AAT?$AA?$AA@ 0041d57c     GameClientView.obj
 0002:00002608       ?messageMap@CGameFrameWindow@@1UAFX_MSGMAP@@B 0041d608     GameFrameWindow.obj
 0002:00002610       ?_messageEntries@CGameFrameWindow@@0QBUAFX_MSGMAP_ENTRY@@B 0041d610     GameFrameWindow.obj
 0002:00002718       ??_7IUnknownEx@@6B@        0041d718     GameFrameWindow.obj
 0002:00002720       ??_7CGameFrameWindow@@6BIUserEventSink@@@ 0041d720     GameFrameWindow.obj
 0002:00002740       ??_7CGameFrameWindow@@6BIGameFrameWnd@@@ 0041d740     GameFrameWindow.obj
 0002:00002760       ??_7CGameFrameWindow@@6BCFrameWnd@@@ 0041d760     GameFrameWindow.obj
 0002:000028d8       ??_7IGameFrameWnd@@6B@     0041d8d8     GameFrameWindow.obj
 0002:000028f8       ??_7IUserEventSink@@6B@    0041d8f8     GameFrameWindow.obj
 0002:00002918       ??_C@_1BM@DLPMOIAB@?$AAG?$AAa?$AAm?$AAe?$AAF?$AAr?$AAa?$AAm?$AAe?$AA?4?$AAd?$AAl?$AAl?$AA?$AA@ 0041d918     GameFrameWindow.obj
 0002:00002934       ?m_cbCardData@CGameLogic@@1QBEB 0041d934     GameLogic.obj
 0002:0000296c       ??_7CGameLogic@@6B@        0041d96c     GameLogic.obj
 0002:00002970       ??_7CHistoryCard@@6B@      0041d970     HistoryRecord.obj
 0002:00002974       ??_7CHistoryScore@@6B@     0041d974     HistoryRecord.obj
 0002:00002978       ??_7CScoreControl@@6B@     0041d978     ScoreControl.obj
 0002:00002998       ??_C@_1BM@LHOGKNMM@?$AAF?$AAA?$AAN?$AA_?$AAC?$AAH?$AAU?$AAN?$AA_?$AAT?$AAI?$AAA?$AAN?$AA?$AA@ 0041d998     ScoreControl.obj
 0002:000029b4       ??_C@_1BE@IIIICMIP@?$AAC?$AAH?$AAU?$AAN?$AA_?$AAT?$AAI?$AAA?$AAN?$AA?$AA@ 0041d9b4     ScoreControl.obj
 0002:000029c8       ??_C@_1BM@GPIOJEMK@?$AAW?$AAI?$AAN?$AA_?$AAL?$AAO?$AAS?$AAE?$AA_?$AAF?$AAL?$AAA?$AAG?$AA?$AA@ 0041d9c8     ScoreControl.obj
 0002:000029e4       ??_C@_1BG@OHBJMGCJ@?$AAG?$AAA?$AAM?$AAE?$AA_?$AAS?$AAC?$AAO?$AAR?$AAE?$AA?$AA@ 0041d9e4     ScoreControl.obj
 0002:000029fc       ??_C@_1BO@BGMCBIGD@?$AAB?$AAT?$AA_?$AAS?$AAC?$AAO?$AAR?$AAE?$AA_?$AAC?$AAL?$AAO?$AAS?$AAE?$AA?$AA@ 0041d9fc     ScoreControl.obj
 0002:00002a1c       ??_C@_1BC@BOFFADCM@p?$LI_9?$PP?$BK?$AA?5?$AA?$CF?$AAd?$AA?5N?$CK?$AA?$AA@ 0041da1c     ScoreControl.obj
 0002:00002a30       ??_C@_1M@OFMLAOJC@?$HN?1?$IL?$KB?$PP?$BK?$AA?$CF?$AAd?$AA?$AA@ 0041da30     ScoreControl.obj
 0002:00002a3c       ??_C@_1M@LKPJPBFE@_?$JHR?$AG?$PP?$BK?$AA?$CF?$AAd?$AA?$AA@ 0041da3c     ScoreControl.obj
 0002:00002a48       ??_7CSkinButtonEx@@6B@     0041da48     SkinButtonEx.obj
 0002:00002b88       ??_7CBitmap@@6B@           0041db88     SkinButtonEx.obj
 0002:00002b9c       ?messageMap@CSkinHorizontalScrollbar@@1UAFX_MSGMAP@@B 0041db9c     SkinHorizontalScrollbar.obj
 0002:00002ba8       ?_messageEntries@CSkinHorizontalScrollbar@@0QBUAFX_MSGMAP_ENTRY@@B 0041dba8     SkinHorizontalScrollbar.obj
 0002:00002c38       ??_7CSkinHorizontalScrollbar@@6B@ 0041dc38     SkinHorizontalScrollbar.obj
 0002:00002d78       ??_7CStatic@@6B@           0041dd78     SkinHorizontalScrollbar.obj
 0002:00002eb8       ??_7CMemDC@@6B@            0041deb8     SkinHorizontalScrollbar.obj
 0002:00002f38       __real@0000000000000000    0041df38     SkinHorizontalScrollbar.obj
 0002:00002f40       ?messageMap@CSkinVerticleScrollbar@@1UAFX_MSGMAP@@B 0041df40     SkinVerticleScrollbar.obj
 0002:00002f48       ?_messageEntries@CSkinVerticleScrollbar@@0QBUAFX_MSGMAP_ENTRY@@B 0041df48     SkinVerticleScrollbar.obj
 0002:00002ff0       ??_7CSkinVerticleScrollbar@@6B@ 0041dff0     SkinVerticleScrollbar.obj
 0002:00003130       _IID_IProvideMoniker       0041e130     Stdafx.obj
 0002:00003140       _IID_IDBSecurityInfo       0041e140     Stdafx.obj
 0002:00003150       _IID_IDBSchemaCommand      0041e150     Stdafx.obj
 0002:00003160       _IID_ITableRename          0041e160     Stdafx.obj
 0002:00003170       _IID_IQuery                0041e170     Stdafx.obj
 0002:00003180       _IID_ICommandValidate      0041e180     Stdafx.obj
 0002:00003190       _IID_ICommandTree          0041e190     Stdafx.obj
 0002:000031a0       _IID_ICommandCost          0041e1a0     Stdafx.obj
 0002:000031b0       _IID_IReadData             0041e1b0     Stdafx.obj
 0002:000031c0       _IID_IRowsetCopyRows       0041e1c0     Stdafx.obj
 0002:000031d0       _IID_IRowsetWatchRegion    0041e1d0     Stdafx.obj
 0002:000031e0       _IID_IRowsetWatchNotify    0041e1e0     Stdafx.obj
 0002:000031f0       _IID_IRowsetWatchAll       0041e1f0     Stdafx.obj
 0002:00003200       _IID_IRowsetKeys           0041e200     Stdafx.obj
 0002:00003210       _IID_IRowsetAsynch         0041e210     Stdafx.obj
 0002:00003220       _IID_IRowsetFind           0041e220     Stdafx.obj
 0002:00003230       _IID_IRowsetWithParameters 0041e230     Stdafx.obj
 0002:00003240       _IID_IRowsetNewRowAfter    0041e240     Stdafx.obj
 0002:00003250       _IID_IRowsetNextRowset     0041e250     Stdafx.obj
 0002:00003260       _IID_IRowsetExactScroll    0041e260     Stdafx.obj
 0002:00003270       _IID_ITransactionObject    0041e270     Stdafx.obj
 0002:00003280       _IID_ITransactionJoin      0041e280     Stdafx.obj
 0002:00003290       _IID_ITransactionLocal     0041e290     Stdafx.obj
 0002:000032a0       _IID_IGetDataSource        0041e2a0     Stdafx.obj
 0002:000032b0       _IID_ISQLErrorInfo         0041e2b0     Stdafx.obj
 0002:000032c0       _IID_IErrorLookup          0041e2c0     Stdafx.obj
 0002:000032d0       _IID_IErrorRecords         0041e2d0     Stdafx.obj
 0002:000032e0       _IID_IDBSchemaRowset       0041e2e0     Stdafx.obj
 0002:000032f0       _IID_IOpenRowset           0041e2f0     Stdafx.obj
 0002:00003300       _IID_ITableDefinition      0041e300     Stdafx.obj
 0002:00003310       _IID_IIndexDefinition      0041e310     Stdafx.obj
 0002:00003320       _IID_ISessionProperties    0041e320     Stdafx.obj
 0002:00003330       _IID_IDBDataSourceAdmin    0041e330     Stdafx.obj
 0002:00003340       _IID_IDBInfo               0041e340     Stdafx.obj
 0002:00003350       _IID_IDBInitialize         0041e350     Stdafx.obj
 0002:00003360       _IID_IDBProperties         0041e360     Stdafx.obj
 0002:00003370       _IID_ISourcesRowset        0041e370     Stdafx.obj
 0002:00003380       _IID_IDBCreateSession      0041e380     Stdafx.obj
 0002:00003390       _IID_IDBCreateCommand      0041e390     Stdafx.obj
 0002:000033a0       _IID_IColumnsInfo          0041e3a0     Stdafx.obj
 0002:000033b0       _IID_IColumnsRowset        0041e3b0     Stdafx.obj
 0002:000033c0       _IID_ICommandWithParameters 0041e3c0     Stdafx.obj
 0002:000033d0       _IID_ICommandText          0041e3d0     Stdafx.obj
 0002:000033e0       _IID_ICommandProperties    0041e3e0     Stdafx.obj
 0002:000033f0       _IID_ICommandPrepare       0041e3f0     Stdafx.obj
 0002:00003400       _IID_IConvertType          0041e400     Stdafx.obj
 0002:00003410       _IID_IMultipleResults      0041e410     Stdafx.obj
 0002:00003420       _IID_ICommand              0041e420     Stdafx.obj
 0002:00003430       _IID_IRowsetIndex          0041e430     Stdafx.obj
 0002:00003440       _IID_IRowsetNotify         0041e440     Stdafx.obj
 0002:00003450       _IID_IRowsetIdentity       0041e450     Stdafx.obj
 0002:00003460       _IID_IRowsetUpdate         0041e460     Stdafx.obj
 0002:00003470       _IID_IRowsetChange         0041e470     Stdafx.obj
 0002:00003480       _IID_IRowsetScroll         0041e480     Stdafx.obj
 0002:00003490       _IID_IRowsetResynch        0041e490     Stdafx.obj
 0002:000034a0       _IID_IRowsetLocate         0041e4a0     Stdafx.obj
 0002:000034b0       _IID_IRowsetInfo           0041e4b0     Stdafx.obj
 0002:000034c0       _IID_IRowset               0041e4c0     Stdafx.obj
 0002:000034d0       _IID_IAccessor             0041e4d0     Stdafx.obj
 0002:000034e0       _IID_ISequentialStream     0041e4e0     Stdafx.obj
 0002:000034f0       __DBBMKGUID                0041e4f0     Stdafx.obj
 0002:00003500       __GUID_NAMEONLY            0041e500     Stdafx.obj
 0002:00003510       _IID_IEntryID              0041e510     Stdafx.obj
 0002:00003520       _IID_ICursorFind           0041e520     Stdafx.obj
 0002:00003530       _IID_INotifyDBEvents       0041e530     Stdafx.obj
 0002:00003540       _IID_ICursorUpdateARow     0041e540     Stdafx.obj
 0002:00003550       _IID_ICursorScroll         0041e550     Stdafx.obj
 0002:00003560       _IID_ICursorMove           0041e560     Stdafx.obj
 0002:00003570       _IID_ICursor               0041e570     Stdafx.obj
 0002:00003580       _IID_IBoundObjectSite      0041e580     Stdafx.obj
 0002:00003590       _IID_IBoundObject          0041e590     Stdafx.obj
 0002:00003690       _CLSID_FlashObjectInterface 0041e690     Stdafx.obj
 0002:000036a0       _IID_IFlashObjectInterface 0041e6a0     Stdafx.obj
 0002:000036b0       _IID_IDispatchEx           0041e6b0     Stdafx.obj
 0002:000036c0       _IID_IFlashFactory         0041e6c0     Stdafx.obj
 0002:000036d0       _CLSID_ShockwaveFlash      0041e6d0     Stdafx.obj
 0002:000036e0       _DIID__IShockwaveFlashEvents 0041e6e0     Stdafx.obj
 0002:000036f0       _IID_IShockwaveFlash       0041e6f0     Stdafx.obj
 0002:00003700       _LIBID_ShockwaveFlashObjects 0041e700     Stdafx.obj
 0002:00003710       _CLSID_AVIFile             0041e710     Stdafx.obj
 0002:00003720       _IID_IAVIEditStream        0041e720     Stdafx.obj
 0002:00003730       _IID_IGetFrame             0041e730     Stdafx.obj
 0002:00003740       _IID_IAVIStreaming         0041e740     Stdafx.obj
 0002:00003750       _IID_IAVIStream            0041e750     Stdafx.obj
 0002:00003760       _IID_IAVIFile              0041e760     Stdafx.obj
 0002:00003770       _IID_IAMFilterGraphCallback 0041e770     Stdafx.obj
 0002:00003780       ?end@?$_Iosb@H@std@@2W4_Seekdir@12@B 0041e780     Stdafx.obj
 0002:00003784       ?cur@?$_Iosb@H@std@@2W4_Seekdir@12@B 0041e784     Stdafx.obj
 0002:00003788       ?beg@?$_Iosb@H@std@@2W4_Seekdir@12@B 0041e788     Stdafx.obj
 0002:0000378c       ?binary@?$_Iosb@H@std@@2W4_Openmode@12@B 0041e78c     Stdafx.obj
 0002:00003790       ?_Noreplace@?$_Iosb@H@std@@2W4_Openmode@12@B 0041e790     Stdafx.obj
 0002:00003794       ?_Nocreate@?$_Iosb@H@std@@2W4_Openmode@12@B 0041e794     Stdafx.obj
 0002:00003798       ?trunc@?$_Iosb@H@std@@2W4_Openmode@12@B 0041e798     Stdafx.obj
 0002:0000379c       ?app@?$_Iosb@H@std@@2W4_Openmode@12@B 0041e79c     Stdafx.obj
 0002:000037a0       ?ate@?$_Iosb@H@std@@2W4_Openmode@12@B 0041e7a0     Stdafx.obj
 0002:000037a4       ?out@?$_Iosb@H@std@@2W4_Openmode@12@B 0041e7a4     Stdafx.obj
 0002:000037a8       ?in@?$_Iosb@H@std@@2W4_Openmode@12@B 0041e7a8     Stdafx.obj
 0002:000037ac       ?_Hardfail@?$_Iosb@H@std@@2W4_Iostate@12@B 0041e7ac     Stdafx.obj
 0002:000037b0       ?badbit@?$_Iosb@H@std@@2W4_Iostate@12@B 0041e7b0     Stdafx.obj
 0002:000037b4       ?failbit@?$_Iosb@H@std@@2W4_Iostate@12@B 0041e7b4     Stdafx.obj
 0002:000037b8       ?eofbit@?$_Iosb@H@std@@2W4_Iostate@12@B 0041e7b8     Stdafx.obj
 0002:000037bc       ?goodbit@?$_Iosb@H@std@@2W4_Iostate@12@B 0041e7bc     Stdafx.obj
 0002:000037c0       ?floatfield@?$_Iosb@H@std@@2W4_Fmtflags@12@B 0041e7c0     Stdafx.obj
 0002:000037c4       ?basefield@?$_Iosb@H@std@@2W4_Fmtflags@12@B 0041e7c4     Stdafx.obj
 0002:000037c8       ?adjustfield@?$_Iosb@H@std@@2W4_Fmtflags@12@B 0041e7c8     Stdafx.obj
 0002:000037cc       ?_Stdio@?$_Iosb@H@std@@2W4_Fmtflags@12@B 0041e7cc     Stdafx.obj
 0002:000037d0       ?boolalpha@?$_Iosb@H@std@@2W4_Fmtflags@12@B 0041e7d0     Stdafx.obj
 0002:000037d4       ?fixed@?$_Iosb@H@std@@2W4_Fmtflags@12@B 0041e7d4     Stdafx.obj
 0002:000037d8       ?scientific@?$_Iosb@H@std@@2W4_Fmtflags@12@B 0041e7d8     Stdafx.obj
 0002:000037dc       ?hex@?$_Iosb@H@std@@2W4_Fmtflags@12@B 0041e7dc     Stdafx.obj
 0002:000037e0       ?oct@?$_Iosb@H@std@@2W4_Fmtflags@12@B 0041e7e0     Stdafx.obj
 0002:000037e4       ?dec@?$_Iosb@H@std@@2W4_Fmtflags@12@B 0041e7e4     Stdafx.obj
 0002:000037e8       ?internal@?$_Iosb@H@std@@2W4_Fmtflags@12@B 0041e7e8     Stdafx.obj
 0002:000037ec       ?right@?$_Iosb@H@std@@2W4_Fmtflags@12@B 0041e7ec     Stdafx.obj
 0002:000037f0       ?left@?$_Iosb@H@std@@2W4_Fmtflags@12@B 0041e7f0     Stdafx.obj
 0002:000037f4       ?showpos@?$_Iosb@H@std@@2W4_Fmtflags@12@B 0041e7f4     Stdafx.obj
 0002:000037f8       ?showpoint@?$_Iosb@H@std@@2W4_Fmtflags@12@B 0041e7f8     Stdafx.obj
 0002:000037fc       ?showbase@?$_Iosb@H@std@@2W4_Fmtflags@12@B 0041e7fc     Stdafx.obj
 0002:00003800       ?uppercase@?$_Iosb@H@std@@2W4_Fmtflags@12@B 0041e800     Stdafx.obj
 0002:00003804       ?unitbuf@?$_Iosb@H@std@@2W4_Fmtflags@12@B 0041e804     Stdafx.obj
 0002:00003808       ?skipws@?$_Iosb@H@std@@2W4_Fmtflags@12@B 0041e808     Stdafx.obj
 0002:0000380c       ?none@?$_Locbase@H@std@@2HB 0041e80c     Stdafx.obj
 0002:00003810       ?all@?$_Locbase@H@std@@2HB 0041e810     Stdafx.obj
 0002:00003814       ?messages@?$_Locbase@H@std@@2HB 0041e814     Stdafx.obj
 0002:00003818       ?time@?$_Locbase@H@std@@2HB 0041e818     Stdafx.obj
 0002:0000381c       ?numeric@?$_Locbase@H@std@@2HB 0041e81c     Stdafx.obj
 0002:00003820       ?monetary@?$_Locbase@H@std@@2HB 0041e820     Stdafx.obj
 0002:00003824       ?ctype@?$_Locbase@H@std@@2HB 0041e824     Stdafx.obj
 0002:00003828       ?collate@?$_Locbase@H@std@@2HB 0041e828     Stdafx.obj
 0002:0000382c       ?excludeValid@CImage@ATL@@2KB 0041e82c     Stdafx.obj
 0002:00003830       ?excludeDefaultSave@CImage@ATL@@2KB 0041e830     Stdafx.obj
 0002:00003834       ?excludeDefaultLoad@CImage@ATL@@2KB 0041e834     Stdafx.obj
 0002:00003838       ?excludeOther@CImage@ATL@@2KB 0041e838     Stdafx.obj
 0002:0000383c       ?excludeIcon@CImage@ATL@@2KB 0041e83c     Stdafx.obj
 0002:00003840       ?excludeTIFF@CImage@ATL@@2KB 0041e840     Stdafx.obj
 0002:00003844       ?excludePNG@CImage@ATL@@2KB 0041e844     Stdafx.obj
 0002:00003848       ?excludeJPEG@CImage@ATL@@2KB 0041e848     Stdafx.obj
 0002:0000384c       ?excludeWMF@CImage@ATL@@2KB 0041e84c     Stdafx.obj
 0002:00003850       ?excludeEMF@CImage@ATL@@2KB 0041e850     Stdafx.obj
 0002:00003854       ?excludeBMP@CImage@ATL@@2KB 0041e854     Stdafx.obj
 0002:00003858       ?excludeGIF@CImage@ATL@@2KB 0041e858     Stdafx.obj
 0002:0000385c       ?createAlphaChannel@CImage@ATL@@2KB 0041e85c     Stdafx.obj
 0002:00003860       ?c_bIsMFCDLLTraits@?$_MFCDLLTraitsCheck@_WV?$StrTraitATL@_WV?$ChTraitsCRT@_W@ATL@@@ATL@@@_CSTRING_IMPL_@ATL@@2_NB 0041e860     Stdafx.obj
 0002:00003861       ?c_bIsMFCDLLTraits@?$_MFCDLLTraitsCheck@DV?$StrTraitATL@DV?$ChTraitsCRT@D@ATL@@@ATL@@@_CSTRING_IMPL_@ATL@@2_NB 0041e861     Stdafx.obj
 0002:00003864       ?cbNeverDelete@CRegParser@ATL@@1HB 0041e864     Stdafx.obj
 0002:00003868       ?rgszNeverDelete@CRegParser@ATL@@1QBQB_WB 0041e868     Stdafx.obj
 0002:00003898       ??_C@_1BA@JIHHIEDE@?$AAT?$AAy?$AAp?$AAe?$AAL?$AAi?$AAb?$AA?$AA@ 0041e898     Stdafx.obj
 0002:000038a8       ??_C@_1BC@EAHCMADO@?$AAS?$AAo?$AAf?$AAt?$AAw?$AAa?$AAr?$AAe?$AA?$AA@ 0041e8a8     Stdafx.obj
 0002:000038bc       ??_C@_1O@GBFINDKL@?$AAS?$AAY?$AAS?$AAT?$AAE?$AAM?$AA?$AA@ 0041e8bc     Stdafx.obj
 0002:000038cc       ??_C@_1BC@IBECJAAI@?$AAS?$AAE?$AAC?$AAU?$AAR?$AAI?$AAT?$AAY?$AA?$AA@ 0041e8cc     Stdafx.obj
 0002:000038e0       ??_C@_17OMAOINJK@?$AAS?$AAA?$AAM?$AA?$AA@ 0041e8e0     Stdafx.obj
 0002:000038e8       ??_C@_19HLLLM@?$AAM?$AAi?$AAm?$AAe?$AA?$AA@ 0041e8e8     Stdafx.obj
 0002:000038f4       ??_C@_1BC@MAICEHGI@?$AAH?$AAa?$AAr?$AAd?$AAw?$AAa?$AAr?$AAe?$AA?$AA@ 0041e8f4     Stdafx.obj
 0002:00003908       ??_C@_1BE@EKPAFMCP@?$AAI?$AAn?$AAt?$AAe?$AAr?$AAf?$AAa?$AAc?$AAe?$AA?$AA@ 0041e908     Stdafx.obj
 0002:0000391c       ??_C@_1BC@NKMMNMGL@?$AAF?$AAi?$AAl?$AAe?$AAT?$AAy?$AAp?$AAe?$AA?$AA@ 0041e91c     Stdafx.obj
 0002:00003930       ??_C@_1CK@OEKPKBNA@?$AAC?$AAo?$AAm?$AAp?$AAo?$AAn?$AAe?$AAn?$AAt?$AA?5?$AAC?$AAa?$AAt?$AAe?$AAg?$AAo?$AAr?$AAi?$AAe?$AAs@ 0041e930     Stdafx.obj
 0002:0000395c       ??_C@_1M@KANJNLFF@?$AAC?$AAL?$AAS?$AAI?$AAD?$AA?$AA@ 0041e95c     Stdafx.obj
 0002:00003968       ??_C@_1M@EJNEECMJ@?$AAA?$AAp?$AAp?$AAI?$AAD?$AA?$AA@ 0041e968     Stdafx.obj
 0002:00003974       ?MAX_TYPE@CRegParser@ATL@@1HB 0041e974     Stdafx.obj
 0002:00003978       ?MAX_VALUE@CRegParser@ATL@@1HB 0041e978     Stdafx.obj
 0002:0000397c       ??_C@_1O@JDLOHAN@?$AAD?$AAe?$AAl?$AAe?$AAt?$AAe?$AA?$AA@ 0041e97c     Stdafx.obj
 0002:0000398c       ??_C@_1BC@GCKHIPE@?$AAN?$AAo?$AAR?$AAe?$AAm?$AAo?$AAv?$AAe?$AA?$AA@ 0041e98c     Stdafx.obj
 0002:000039a0       ??_C@_1BI@JFAIJMHL@?$AAF?$AAo?$AAr?$AAc?$AAe?$AAR?$AAe?$AAm?$AAo?$AAv?$AAe?$AA?$AA@ 0041e9a0     Stdafx.obj
 0002:000039b8       ??_C@_17LLMMEOJD@?$AAV?$AAa?$AAl?$AA?$AA@ 0041e9b8     Stdafx.obj
 0002:000039c0       ??_C@_13OPKGLAFF@?$AAB?$AA?$AA@ 0041e9c0     Stdafx.obj
 0002:000039c4       ??_C@_13MKMNOPIJ@?$AAD?$AA?$AA@ 0041e9c4     Stdafx.obj
 0002:000039c8       ??_C@_13LHMFKAAD@?$AAM?$AA?$AA@ 0041e9c8     Stdafx.obj
 0002:000039cc       ??_C@_13HADIAKP@?$AAS?$AA?$AA@ 0041e9cc     Stdafx.obj
 0002:000039d0       _CLSID_StdGlobalInterfaceTable 0041e9d0     Stdafx.obj
 0002:000039e0       _IID_IAxWinAmbientDispatchEx 0041e9e0     Stdafx.obj
 0002:000039f0       _IID_IAxWinHostWindowLic   0041e9f0     Stdafx.obj
 0002:00003a00       _IID_IDocHostUIHandlerDispatch 0041ea00     Stdafx.obj
 0002:00003a10       _IID_IInternalConnection   0041ea10     Stdafx.obj
 0002:00003a20       _IID_IAxWinAmbientDispatch 0041ea20     Stdafx.obj
 0002:00003a30       _IID_IAxWinHostWindow      0041ea30     Stdafx.obj
 0002:00003a40       _IID_IRegistrar            0041ea40     Stdafx.obj
 0002:00003a50       _CLSID_Registrar           0041ea50     Stdafx.obj
 0002:00003a60       _LIBID_ATLLib              0041ea60     Stdafx.obj
 0002:00003a70       ?OLE_DATETIME_HALFSECOND@COleDateTimeSpan@ATL@@0NB 0041ea70     Stdafx.obj
 0002:00003a78       ?pmField@?$CVarTypeInfo@PATtagCY@@@ATL@@2QQtagVARIANT@@PATtagCY@@Q3@ 0041ea78     Stdafx.obj
 0002:00003a7c       ?VT@?$CVarTypeInfo@PATtagCY@@@ATL@@2GB 0041ea7c     Stdafx.obj
 0002:00003a80       ?pmField@?$CVarTypeInfo@TtagCY@@@ATL@@2QQtagVARIANT@@TtagCY@@Q3@ 0041ea80     Stdafx.obj
 0002:00003a84       ?VT@?$CVarTypeInfo@TtagCY@@@ATL@@2GB 0041ea84     Stdafx.obj
 0002:00003a88       ?pmField@?$CVarTypeInfo@PAPAUIDispatch@@@ATL@@2QQtagVARIANT@@PAPAUIDispatch@@Q3@ 0041ea88     Stdafx.obj
 0002:00003a8c       ?VT@?$CVarTypeInfo@PAPAUIDispatch@@@ATL@@2GB 0041ea8c     Stdafx.obj
 0002:00003a90       ?pmField@?$CVarTypeInfo@PAUIDispatch@@@ATL@@2QQtagVARIANT@@PAUIDispatch@@Q3@ 0041ea90     Stdafx.obj
 0002:00003a94       ?VT@?$CVarTypeInfo@PAUIDispatch@@@ATL@@2GB 0041ea94     Stdafx.obj
 0002:00003a98       ?pmField@?$CVarTypeInfo@PAPAUIUnknown@@@ATL@@2QQtagVARIANT@@PAPAUIUnknown@@Q3@ 0041ea98     Stdafx.obj
 0002:00003a9c       ?VT@?$CVarTypeInfo@PAPAUIUnknown@@@ATL@@2GB 0041ea9c     Stdafx.obj
 0002:00003aa0       ?pmField@?$CVarTypeInfo@PAUIUnknown@@@ATL@@2QQtagVARIANT@@PAUIUnknown@@Q3@ 0041eaa0     Stdafx.obj
 0002:00003aa4       ?VT@?$CVarTypeInfo@PAUIUnknown@@@ATL@@2GB 0041eaa4     Stdafx.obj
 0002:00003aa8       ?pmField@?$CVarTypeInfo@PAPA_W@ATL@@2QQtagVARIANT@@PAPA_WQ3@ 0041eaa8     Stdafx.obj
 0002:00003aac       ?VT@?$CVarTypeInfo@PAPA_W@ATL@@2GB 0041eaac     Stdafx.obj
 0002:00003ab0       ?pmField@?$CVarTypeInfo@PA_W@ATL@@2QQtagVARIANT@@PA_WQ3@ 0041eab0     Stdafx.obj
 0002:00003ab4       ?VT@?$CVarTypeInfo@PA_W@ATL@@2GB 0041eab4     Stdafx.obj
 0002:00003ab8       ?VT@?$CVarTypeInfo@UtagVARIANT@@@ATL@@2GB 0041eab8     Stdafx.obj
 0002:00003abc       ?pmField@?$CVarTypeInfo@PAN@ATL@@2QQtagVARIANT@@PANQ3@ 0041eabc     Stdafx.obj
 0002:00003ac0       ?VT@?$CVarTypeInfo@PAN@ATL@@2GB 0041eac0     Stdafx.obj
 0002:00003ac4       ?pmField@?$CVarTypeInfo@N@ATL@@2QQtagVARIANT@@NQ3@ 0041eac4     Stdafx.obj
 0002:00003ac8       ?VT@?$CVarTypeInfo@N@ATL@@2GB 0041eac8     Stdafx.obj
 0002:00003acc       ?pmField@?$CVarTypeInfo@PAM@ATL@@2QQtagVARIANT@@PAMQ3@ 0041eacc     Stdafx.obj
 0002:00003ad0       ?VT@?$CVarTypeInfo@PAM@ATL@@2GB 0041ead0     Stdafx.obj
 0002:00003ad4       ?pmField@?$CVarTypeInfo@M@ATL@@2QQtagVARIANT@@MQ3@ 0041ead4     Stdafx.obj
 0002:00003ad8       ?VT@?$CVarTypeInfo@M@ATL@@2GB 0041ead8     Stdafx.obj
 0002:00003adc       ?pmField@?$CVarTypeInfo@PA_K@ATL@@2QQtagVARIANT@@PA_KQ3@ 0041eadc     Stdafx.obj
 0002:00003ae0       ?VT@?$CVarTypeInfo@PA_K@ATL@@2GB 0041eae0     Stdafx.obj
 0002:00003ae4       ?pmField@?$CVarTypeInfo@_K@ATL@@2QQtagVARIANT@@_KQ3@ 0041eae4     Stdafx.obj
 0002:00003ae8       ?VT@?$CVarTypeInfo@_K@ATL@@2GB 0041eae8     Stdafx.obj
 0002:00003aec       ?pmField@?$CVarTypeInfo@PA_J@ATL@@2QQtagVARIANT@@PA_JQ3@ 0041eaec     Stdafx.obj
 0002:00003af0       ?VT@?$CVarTypeInfo@PA_J@ATL@@2GB 0041eaf0     Stdafx.obj
 0002:00003af4       ?pmField@?$CVarTypeInfo@_J@ATL@@2QQtagVARIANT@@_JQ3@ 0041eaf4     Stdafx.obj
 0002:00003af8       ?VT@?$CVarTypeInfo@_J@ATL@@2GB 0041eaf8     Stdafx.obj
 0002:00003afc       ?pmField@?$CVarTypeInfo@PAK@ATL@@2QQtagVARIANT@@PAKQ3@ 0041eafc     Stdafx.obj
 0002:00003b00       ?VT@?$CVarTypeInfo@PAK@ATL@@2GB 0041eb00     Stdafx.obj
 0002:00003b04       ?pmField@?$CVarTypeInfo@K@ATL@@2QQtagVARIANT@@KQ3@ 0041eb04     Stdafx.obj
 0002:00003b08       ?VT@?$CVarTypeInfo@K@ATL@@2GB 0041eb08     Stdafx.obj
 0002:00003b0c       ?pmField@?$CVarTypeInfo@PAJ@ATL@@2QQtagVARIANT@@PAJQ3@ 0041eb0c     Stdafx.obj
 0002:00003b10       ?VT@?$CVarTypeInfo@PAJ@ATL@@2GB 0041eb10     Stdafx.obj
 0002:00003b14       ?pmField@?$CVarTypeInfo@J@ATL@@2QQtagVARIANT@@JQ3@ 0041eb14     Stdafx.obj
 0002:00003b18       ?VT@?$CVarTypeInfo@J@ATL@@2GB 0041eb18     Stdafx.obj
 0002:00003b1c       ?pmField@?$CVarTypeInfo@PAI@ATL@@2QQtagVARIANT@@PAIQ3@ 0041eb1c     Stdafx.obj
 0002:00003b20       ?VT@?$CVarTypeInfo@PAI@ATL@@2GB 0041eb20     Stdafx.obj
 0002:00003b24       ?pmField@?$CVarTypeInfo@I@ATL@@2QQtagVARIANT@@IQ3@ 0041eb24     Stdafx.obj
 0002:00003b28       ?VT@?$CVarTypeInfo@I@ATL@@2GB 0041eb28     Stdafx.obj
 0002:00003b2c       ?pmField@?$CVarTypeInfo@PAH@ATL@@2QQtagVARIANT@@PAHQ3@ 0041eb2c     Stdafx.obj
 0002:00003b30       ?VT@?$CVarTypeInfo@PAH@ATL@@2GB 0041eb30     Stdafx.obj
 0002:00003b34       ?pmField@?$CVarTypeInfo@H@ATL@@2QQtagVARIANT@@HQ3@ 0041eb34     Stdafx.obj
 0002:00003b38       ?VT@?$CVarTypeInfo@H@ATL@@2GB 0041eb38     Stdafx.obj
 0002:00003b3c       ?pmField@?$CVarTypeInfo@PAG@ATL@@2QQtagVARIANT@@PAGQ3@ 0041eb3c     Stdafx.obj
 0002:00003b40       ?VT@?$CVarTypeInfo@PAG@ATL@@2GB 0041eb40     Stdafx.obj
 0002:00003b44       ?pmField@?$CVarTypeInfo@G@ATL@@2QQtagVARIANT@@GQ3@ 0041eb44     Stdafx.obj
 0002:00003b48       ?VT@?$CVarTypeInfo@G@ATL@@2GB 0041eb48     Stdafx.obj
 0002:00003b4c       ?pmField@?$CVarTypeInfo@PAF@ATL@@2QQtagVARIANT@@PAFQ3@ 0041eb4c     Stdafx.obj
 0002:00003b50       ?VT@?$CVarTypeInfo@PAF@ATL@@2GB 0041eb50     Stdafx.obj
 0002:00003b54       ?pmField@?$CVarTypeInfo@F@ATL@@2QQtagVARIANT@@FQ3@ 0041eb54     Stdafx.obj
 0002:00003b58       ?VT@?$CVarTypeInfo@F@ATL@@2GB 0041eb58     Stdafx.obj
 0002:00003b5c       ?pmField@?$CVarTypeInfo@PAE@ATL@@2QQtagVARIANT@@PAEQ3@ 0041eb5c     Stdafx.obj
 0002:00003b60       ?VT@?$CVarTypeInfo@PAE@ATL@@2GB 0041eb60     Stdafx.obj
 0002:00003b64       ?pmField@?$CVarTypeInfo@PAD@ATL@@2QQtagVARIANT@@PADQ3@ 0041eb64     Stdafx.obj
 0002:00003b68       ?VT@?$CVarTypeInfo@PAD@ATL@@2GB 0041eb68     Stdafx.obj
 0002:00003b6c       ?pmField@?$CVarTypeInfo@E@ATL@@2QQtagVARIANT@@EQ3@ 0041eb6c     Stdafx.obj
 0002:00003b70       ?VT@?$CVarTypeInfo@E@ATL@@2GB 0041eb70     Stdafx.obj
 0002:00003b74       ?pmField@?$CVarTypeInfo@D@ATL@@2QQtagVARIANT@@DQ3@ 0041eb74     Stdafx.obj
 0002:00003b78       ?VT@?$CVarTypeInfo@D@ATL@@2GB 0041eb78     Stdafx.obj
 0002:00003b7c       ?szInvalidDateTimeSpan@ATL@@3QB_WB 0041eb7c     Stdafx.obj
 0002:00003b80       ??_C@_1CK@NMKILLLB@?$AAI?$AAn?$AAv?$AAa?$AAl?$AAi?$AAd?$AA?5?$AAD?$AAa?$AAt?$AAe?$AAT?$AAi?$AAm?$AAe?$AAS?$AAp?$AAa?$AAn@ 0041eb80     Stdafx.obj
 0002:00003bac       ?szInvalidDateTime@ATL@@3QB_WB 0041ebac     Stdafx.obj
 0002:00003bb0       ??_C@_1CC@FFBCNGIJ@?$AAI?$AAn?$AAv?$AAa?$AAl?$AAi?$AAd?$AA?5?$AAD?$AAa?$AAt?$AAe?$AAT?$AAi?$AAm?$AAe?$AA?$AA@ 0041ebb0     Stdafx.obj
 0002:00003bd8       ?Week@CFileTime@ATL@@2_KB  0041ebd8     Stdafx.obj
 0002:00003be0       ?Day@CFileTime@ATL@@2_KB   0041ebe0     Stdafx.obj
 0002:00003be8       ?Hour@CFileTime@ATL@@2_KB  0041ebe8     Stdafx.obj
 0002:00003bf0       ?Minute@CFileTime@ATL@@2_KB 0041ebf0     Stdafx.obj
 0002:00003bf8       ?Second@CFileTime@ATL@@2_KB 0041ebf8     Stdafx.obj
 0002:00003c00       ?Millisecond@CFileTime@ATL@@2_KB 0041ec00     Stdafx.obj
 0002:00003c08       ?c_bIsMFCDLLTraits@?$_MFCDLLTraitsCheck@_WV?$StrTraitMFC_DLL@_WV?$ChTraitsCRT@_W@ATL@@@@@_CSTRING_IMPL_@ATL@@2_NB 0041ec08     Stdafx.obj
 0002:00003c09       ?c_bIsMFCDLLTraits@?$_MFCDLLTraitsCheck@DV?$StrTraitMFC_DLL@DV?$ChTraitsCRT@D@ATL@@@@@_CSTRING_IMPL_@ATL@@2_NB 0041ec09     Stdafx.obj
 0002:00003c1c       ??_C@_08EPJLHIJG@bad?5cast?$AA@ 0041ec1c     Stdafx.obj
 0002:00003c48       ??_7CStringMessage@@6B@    0041ec48     StringMessage.obj
 0002:00003c98       ??_7IStringMessage@@6B@    0041ec98     StringMessage.obj
 0002:00003ce4       ??_C@_1M@PNPCCHCL@?$AA?$CF?$AAs?$IP?$NLgeN?$IG?$AA?$AA@ 0041ece4     StringMessage.obj
 0002:00003cf0       ??_C@_1M@ODNPOFNN@?$AA?$CF?$AAsy?$LL_?$AAN?$IG?$AA?$AA@ 0041ecf0     StringMessage.obj
 0002:00003cfc       ??_C@_1M@OOEIIMNP@?$AA?$CF?$AAse?$KN?$HO?$LPN?$IG?$AA?$AA@ 0041ecfc     StringMessage.obj
 0002:00003d08       ??_C@_1CA@MHIDJDMM@?$AAI?$AAn?$AAs?$AAe?$AAr?$AAt?$AAU?$AAs?$AAe?$AAr?$AAC?$AAh?$AAa?$AAt?$AA?3?$AA?$AA@ 0041ed08     StringMessage.obj
 0002:00003d28       ??_C@_1CG@LPPJCJPA@?$AAI?$AAn?$AAs?$AAe?$AAr?$AAt?$AAW?$AAh?$AAi?$AAs?$AAp?$AAe?$AAr?$AAC?$AAh?$AAa?$AAt?$AA?3?$AA?$AA@ 0041ed28     StringMessage.obj
 0002:00003d50       ??_C@_1CG@LGIAMCGP@?$AAI?$AAn?$AAs?$AAe?$AAr?$AAt?$AAU?$AAs?$AAe?$AAr?$AAT?$AAr?$AAu?$AAm?$AAp?$AAe?$AAt?$AA?3?$AA?$AA@ 0041ed50     StringMessage.obj
 0002:00003d78       ??_C@_1CE@CMICJLMF@?$AAI?$AAn?$AAs?$AAe?$AAr?$AAt?$AAU?$AAs?$AAe?$AAr?$AAT?$AAy?$AAp?$AAh?$AAo?$AAn?$AA?3?$AA?$AA@ 0041ed78     StringMessage.obj
 0002:00003e10       ??_7type_info@@6B@         0041ee10     msvcrt:ti_inst.obj
 0002:00003e34       _GUID_ATLVer30             0041ee34     atls:atlbase.obj
 0002:00003e44       _GUID_ATLVer70             0041ee44     atls:atlbase.obj
 0002:00003e58       __load_config_used         0041ee58     msvcrt:loadcfg.obj
 0002:00003f1c       ??_R1A@?0A@A@type_info@@8  0041ef1c     msvcrt:ti_inst.obj
 0002:00003f34       ??_R2type_info@@8          0041ef34     msvcrt:ti_inst.obj
 0002:00003f3c       ??_R3type_info@@8          0041ef3c     msvcrt:ti_inst.obj
 0002:00003f4c       ??_R4type_info@@6B@        0041ef4c     msvcrt:ti_inst.obj
 0002:00003f60       ___safe_se_handler_table   0041ef60     <linker-defined>
 0002:000040a8       ___rtc_iaa                 0041f0a8     msvcrt:initsect.obj
 0002:000040ac       ___rtc_izz                 0041f0ac     msvcrt:initsect.obj
 0002:000040b0       ___rtc_taa                 0041f0b0     msvcrt:initsect.obj
 0002:000040b4       ___rtc_tzz                 0041f0b4     msvcrt:initsect.obj
 0002:00004f70       __CT??_R0?AVexception@@@8??0exception@@QAE@ABV0@@Z12 0041ff70     Stdafx.obj
 0002:00004f8c       __CT??_R0?AVbad_cast@@@8??0bad_cast@@QAE@ABV0@@Z12 0041ff8c     Stdafx.obj
 0002:00004fa8       __CTA2?AVbad_cast@@        0041ffa8     Stdafx.obj
 0002:00004fb4       __TI2?AVbad_cast@@         0041ffb4     Stdafx.obj
 0002:000056b4       ___pobjMapEntryFirst       004206b4     Stdafx.obj
 0002:000056b8       ___pobjMapEntryLast        004206b8     Stdafx.obj
 0002:000056bc       __IMPORT_DESCRIPTOR_MFC71U 004206bc     mfc71u:MFC71U.DLL
 0002:000056d0       __IMPORT_DESCRIPTOR_MSVCR71 004206d0     msvcrt:MSVCR71.dll
 0002:000056e4       __IMPORT_DESCRIPTOR_KERNEL32 004206e4     kernel32:KERNEL32.dll
 0002:000056f8       __IMPORT_DESCRIPTOR_USER32 004206f8     user32:USER32.dll
 0002:0000570c       __IMPORT_DESCRIPTOR_GDI32  0042070c     gdi32:GDI32.dll
 0002:00005720       __IMPORT_DESCRIPTOR_MSIMG32 00420720     msimg32:MSIMG32.dll
 0002:00005734       __IMPORT_DESCRIPTOR_COMCTL32 00420734     comctl32:COMCTL32.dll
 0002:00005748       __IMPORT_DESCRIPTOR_OLEAUT32 00420748     oleaut32:OLEAUT32.dll
 0002:0000575c       __IMPORT_DESCRIPTOR_MSVCP71 0042075c     msvcprt:MSVCP71.dll
 0002:00005770       __IMPORT_DESCRIPTOR_WHImage 00420770     WHImage:WHImage.dll
 0002:00005784       __IMPORT_DESCRIPTOR_GameFrame 00420784     GameFrame:GameFrame.dll
 0002:00005798       __IMPORT_DESCRIPTOR_GameEngine 00420798     GameEngine:GameEngine.dll
 0002:000057ac       __IMPORT_DESCRIPTOR_SkinControl 004207ac     SkinControl:SkinControl.dll
 0002:000057c0       __IMPORT_DESCRIPTOR_ShareControl 004207c0     ShareControl:ShareControl.dll
 0002:000057d4       __NULL_IMPORT_DESCRIPTOR   004207d4     mfc71u:MFC71U.DLL
 0003:00000000       ___xc_a                    00425000     msvcrt:cinitexe.obj
 0003:00000024       ___xc_z                    00425024     msvcrt:cinitexe.obj
 0003:00000028       ___xi_a                    00425028     msvcrt:cinitexe.obj
 0003:0000002c       ___xi_z                    0042502c     msvcrt:cinitexe.obj
 0003:00000030       ?messageMap@CGameClientEngine@@1UAFX_MSGMAP@@B 00425030     GameClientEngine.obj
 0003:00000038       ?messageMap@CGameClientView@@1UAFX_MSGMAP@@B 00425038     GameClientView.obj
 0003:00000040       ?IID_IRichEditOleCallback2@@3U_GUID@@A 00425040     Stdafx.obj
 0003:00000050       ?IID_IImageOle@@3U_GUID@@A 00425050     Stdafx.obj
 0003:00000060       ?CLSID_ImageOle@@3U_GUID@@A 00425060     Stdafx.obj
 0003:000000b0       ?g_pfnGetThreadACP@ATL@@3P6GIXZA 004250b0     Stdafx.obj
 0003:000000b4       ??_R0?AVexception@@@8      004250b4     Stdafx.obj
 0003:000000cc       ??_R0?AVbad_cast@@@8       004250cc     Stdafx.obj
 0003:000000f0       ___security_cookie         004250f0     msvcrt:seccook.obj
 0003:000000f4       ??_R0?AVtype_info@@@8      004250f4     msvcrt:ti_inst.obj
 0003:0000010c       ___defaultmatherr          0042510c     msvcrt:merr.obj
 0003:00000110       ?rcDefault@CWindow@ATL@@2UtagRECT@@A 00425110     atls:atlbase.obj
 0003:00000120       ?m_CardResource@CCardControl@@2VCCardResource@@A 00425120     CardControl.obj
 0003:00000278       ?theApp@@3VCGameClientApp@@A 00425278     GameClient.obj
 0003:00000f8c       ?ATL_CREATE_OBJECT@CComApartment@ATL@@2IA 00425f8c     Stdafx.obj
 0003:00000f90       ?_pModule@ATL@@3PAVCComModule@1@A 00425f90     Stdafx.obj
 0003:00000f94       ?m_libid@CAtlModule@ATL@@2U_GUID@@A 00425f94     Stdafx.obj
 0003:00000fa4       ?_pAtlModule@ATL@@3PAVCAtlModule@1@A 00425fa4     Stdafx.obj
 0003:00000fa8       ?_pPerfUnRegFunc@ATL@@3P6AJXZA 00425fa8     Stdafx.obj
 0003:00000fac       ?_pPerfRegFunc@ATL@@3P6AJPAUHINSTANCE__@@@ZA 00425fac     Stdafx.obj
 0003:00000fb0       ?s_pLog@CFixedStringMgr@ATL@@2PAVIFixedStringLog@2@A 00425fb0     Stdafx.obj
 0003:00000fb4       ?m_bInitFailed@CAtlBaseModule@ATL@@2_NA 00425fb4     Stdafx.obj
 0003:00000fb8       ?_pAtlAutoThreadModule@ATL@@3PAUIAtlAutoThreadModule@1@A 00425fb8     Stdafx.obj
 0003:00000fbc       ?_Psave@?$_Facetptr@V?$ctype@D@std@@@std@@2PBVfacet@locale@2@B 00425fbc     Stdafx.obj
 0003:00000fc0       ?_Psave@?$_Facetptr@V?$ctype@_W@std@@@std@@2PBVfacet@locale@2@B 00425fc0     Stdafx.obj
 0003:00000fc4       ?_AtlWinModule@ATL@@3VCAtlWinModule@1@A 00425fc4     Stdafx.obj
 0003:00000ff0       __afxForceEXCLUDE          00425ff0     mfcs71u:nolib.obj
 0003:00000ff4       ?WM_DESTROYMODELESS@CDHtmlDialog@@1IA 00425ff4     mfcs71u:stdafx.obj
 0003:00000ff8       __afxForceSTDAFX           00425ff8     mfcs71u:stdafx.obj
 0003:00000ffc       __dowildcard               00425ffc     msvcrt:wildcard.obj
 0003:00001000       __newmode                  00426000     msvcrt:_newmode.obj
 0003:00001004       __commode                  00426004     msvcrt:xncommod.obj
 0003:00001008       __fmode                    00426008     msvcrt:xtxtmode.obj
 0003:0000100c       ?_AtlBaseModule@ATL@@3VCAtlBaseModule@1@A 0042600c     atls:atlbase.obj
 0003:00001048       ?_afxInitAppState@@3DA     00426048     mfcs71u:appmodul.obj
 0003:0000104c       __adjust_fdiv              0042604c     <common>
 0003:00001050       ___onexitend               00426050     <common>
 0003:00001054       ___onexitbegin             00426054     <common>

 entry point at        0001:00016ff7

 Static symbols

 0001:fffff000       $L275531                   00400000 f   SkinVerticleScrollbar.obj
 0001:fffff000       $L275419                   00400000 f   SkinVerticleScrollbar.obj
 0001:fffff008       __ehhandler$??0CMemDC@@QAE@PAVCDC@@ABVCRect@@@Z 00400008 f   SkinVerticleScrollbar.obj
 0001:fffff008       __ehhandler$??1CMemDC@@UAE@XZ 00400008 f   SkinVerticleScrollbar.obj
 0001:00002923       $L277646                   00403923 f   GameClientEngine.obj
 0001:0000298a       $L277648                   0040398a f   GameClientEngine.obj
 0001:000029f5       $L277650                   004039f5 f   GameClientEngine.obj
 0001:00002a60       $L277652                   00403a60 f   GameClientEngine.obj
 0001:00002b5a       $L277654                   00403b5a f   GameClientEngine.obj
 0001:00002e1e       $L277691                   00403e1e f   GameClientEngine.obj
 0001:00004f40       $L278088                   00405f40 f   GameClientEngine.obj
 0001:00005dc3       $L278288                   00406dc3 f   GameClientEngine.obj
 0001:00006bd7       $L278491                   00407bd7 f   GameClientEngine.obj
 0001:000155c6       $L279556                   004165c6 f i Stdafx.obj
 0001:0001578d       $L279595                   0041678d f i Stdafx.obj
 0001:00015a04       $L279638                   00416a04 f i Stdafx.obj
 0001:00015bc6       $L279668                   00416bc6 f i Stdafx.obj
 0001:00015d8d       $L279707                   00416d8d f i Stdafx.obj
 0001:00016005       $L279750                   00417005 f i Stdafx.obj
 0001:00016fa1       _check_managed_app         00417fa1 f   msvcrt:wcrtexew.obj
 0001:00017210       _report_failure            00418210 f   msvcrt:secchk.obj
 0001:0001730c       ?ArrayUnwindFilter@@YAHPAU_EXCEPTION_POINTERS@@@Z 0041830c f   msvcrt:ehvecdtr.obj
 0001:000181b0       $L275735                   004191b0 f   CardControl.obj
 0001:000181bc       $L275736                   004191bc f   CardControl.obj
 0001:000181c8       $L275737                   004191c8 f   CardControl.obj
 0001:000181d7       $L275738                   004191d7 f   CardControl.obj
 0001:000181e6       $L275739                   004191e6 f   CardControl.obj
 0001:000181f5       $L275740                   004191f5 f   CardControl.obj
 0001:00018204       __ehhandler$??1CCardResource@@UAE@XZ 00419204 f   CardControl.obj
 0001:00018210       $L275766                   00419210 f   CardControl.obj
 0001:0001821c       __ehhandler$??1CCardControl@@UAE@XZ 0041921c f   CardControl.obj
 0001:00018230       $L275966                   00419230 f   CardControl.obj
 0001:0001823c       $L275967                   0041923c f   CardControl.obj
 0001:00018248       $L275968                   00419248 f   CardControl.obj
 0001:00018257       $L275969                   00419257 f   CardControl.obj
 0001:00018266       $L275970                   00419266 f   CardControl.obj
 0001:00018275       $L275971                   00419275 f   CardControl.obj
 0001:00018284       __ehhandler$??0CCardResource@@QAE@XZ 00419284 f   CardControl.obj
 0001:00018290       $L276058                   00419290 f   CardControl.obj
 0001:0001829c       __ehhandler$??0CCardControl@@QAE@XZ 0041929c f   CardControl.obj
 0001:000182b0       $L275310                   004192b0 f   ChatEdit.obj
 0001:000182b8       $L275311                   004192b8 f   ChatEdit.obj
 0001:000182c3       $L275312                   004192c3 f   ChatEdit.obj
 0001:000182cf       $L275313                   004192cf f   ChatEdit.obj
 0001:000182dd       __ehhandler$??0CChatEdit@@QAE@XZ 004192dd f   ChatEdit.obj
 0001:000182f0       $L275340                   004192f0 f   ChatEdit.obj
 0001:000182f8       $L275341                   004192f8 f   ChatEdit.obj
 0001:00018303       $L275342                   00419303 f   ChatEdit.obj
 0001:0001830f       __ehhandler$??1CChatEdit@@UAE@XZ 0041930f f   ChatEdit.obj
 0001:00018320       $L276164                   00419320 f   ChatMessage.obj
 0001:00018329       __ehhandler$?InsertUserChat@CChatMessage@@UAE_NPB_W0K@Z 00419329 f   ChatMessage.obj
 0001:00018340       $L276346                   00419340 f   GameClient.obj
 0001:0001834a       __ehhandler$?GetGameFrameWnd@CGameClientApp@@UAEPAVCGameFrameWnd@@XZ 0041934a f   GameClient.obj
 0001:00018360       $L276367                   00419360 f   GameClient.obj
 0001:0001836a       __ehhandler$?GetGameFrameEngine@CGameClientApp@@UAEPAVCGameFrameEngine@@K@Z 0041936a f   GameClient.obj
 0001:00018380       $L277564                   00419380 f   GameClientEngine.obj
 0001:00018389       $L277565                   00419389 f   GameClientEngine.obj
 0001:00018397       $L277566                   00419397 f   GameClientEngine.obj
 0001:000183a5       $L277567                   004193a5 f   GameClientEngine.obj
 0001:000183b3       __ehhandler$??0CGameClientEngine@@QAE@XZ 004193b3 f   GameClientEngine.obj
 0001:000183c0       $L277582                   004193c0 f   GameClientEngine.obj
 0001:000183c9       $L277583                   004193c9 f   GameClientEngine.obj
 0001:000183d7       $L277584                   004193d7 f   GameClientEngine.obj
 0001:000183e5       $L277585                   004193e5 f   GameClientEngine.obj
 0001:000183f3       __ehhandler$??1CGameClientEngine@@UAE@XZ 004193f3 f   GameClientEngine.obj
 0001:00018400       __ehhandler$?OnMessageSearchCard@CGameClientEngine@@IAEJIJ@Z 00419400 f   GameClientEngine.obj
 0001:00018410       __ehhandler$?OnMessageOutCardFinish@CGameClientEngine@@IAEJIJ@Z 00419410 f   GameClientEngine.obj
 0001:00018420       $L278089                   00419420 f   GameClientEngine.obj
 0001:00018429       $L278090                   00419429 f   GameClientEngine.obj
 0001:00018432       __ehhandler$?OnTimer@CGameClientEngine@@IAEXI@Z 00419432 f   GameClientEngine.obj
 0001:00018440       __ehhandler$?OnMessageReversalFinish@CGameClientEngine@@IAEJIJ@Z 00419440 f   GameClientEngine.obj
 0001:00018450       $L278344                   00419450 f   GameClientEngine.obj
 0001:00018459       $L278345                   00419459 f   GameClientEngine.obj
 0001:00018462       $L278346                   00419462 f   GameClientEngine.obj
 0001:0001846b       $L278347                   0041946b f   GameClientEngine.obj
 0001:00018474       $L278348                   00419474 f   GameClientEngine.obj
 0001:0001847d       $L278349                   0041947d f   GameClientEngine.obj
 0001:00018486       $L278350                   00419486 f   GameClientEngine.obj
 0001:0001848f       __ehhandler$?OnChatMessage@CGameClientEngine@@QAEJIJ@Z 0041948f f   GameClientEngine.obj
 0001:000184a0       $L278385                   004194a0 f   GameClientEngine.obj
 0001:000184ac       __ehhandler$?OnMessageGameClose@CGameClientEngine@@IAEJIJ@Z 004194ac f   GameClientEngine.obj
 0001:000184c0       __ehhandler$?OnSubPassCard@CGameClientEngine@@IAE_NPAXG@Z 004194c0 f   GameClientEngine.obj
 0001:000184d0       $L278517                   004194d0 f   GameClientEngine.obj
 0001:000184dc       $L278518                   004194dc f   GameClientEngine.obj
 0001:000184e8       __ehhandler$?OnSubGameConclude@CGameClientEngine@@IAE_NPAXG@Z 004194e8 f   GameClientEngine.obj
 0001:00018500       $L277777                   00419500 f   GameClientView.obj
 0001:00018509       $L277778                   00419509 f   GameClientView.obj
 0001:00018512       __ehhandler$?AddComma@CGameClientView@@QAE?AV?$CStringT@_WV?$StrTraitMFC_DLL@_WV?$ChTraitsCRT@_W@ATL@@@@@ATL@@_J_N@Z 00419512 f   GameClientView.obj
 0001:00018520       $L277984                   00419520 f   GameClientView.obj
 0001:00018529       $L277985                   00419529 f   GameClientView.obj
 0001:00018538       $L277986                   00419538 f   GameClientView.obj
 0001:00018547       $L277987                   00419547 f   GameClientView.obj
 0001:00018556       $L277988                   00419556 f   GameClientView.obj
 0001:00018565       $L277989                   00419565 f   GameClientView.obj
 0001:00018574       $L277990                   00419574 f   GameClientView.obj
 0001:00018583       $L277991                   00419583 f   GameClientView.obj
 0001:00018592       $L277992                   00419592 f   GameClientView.obj
 0001:000185ac       $L277993                   004195ac f   GameClientView.obj
 0001:000185bb       $L277994                   004195bb f   GameClientView.obj
 0001:000185ca       $L277995                   004195ca f   GameClientView.obj
 0001:000185d9       $L277996                   004195d9 f   GameClientView.obj
 0001:000185e8       $L277997                   004195e8 f   GameClientView.obj
 0001:000185f7       $L277998                   004195f7 f   GameClientView.obj
 0001:00018606       $L277999                   00419606 f   GameClientView.obj
 0001:00018615       $L278000                   00419615 f   GameClientView.obj
 0001:00018624       $L278001                   00419624 f   GameClientView.obj
 0001:00018633       $L278002                   00419633 f   GameClientView.obj
 0001:00018642       $L278003                   00419642 f   GameClientView.obj
 0001:00018651       $L278004                   00419651 f   GameClientView.obj
 0001:00018660       $L278005                   00419660 f   GameClientView.obj
 0001:0001866f       $L278006                   0041966f f   GameClientView.obj
 0001:0001867e       $L278007                   0041967e f   GameClientView.obj
 0001:0001868d       $L278008                   0041968d f   GameClientView.obj
 0001:0001869c       $L278009                   0041969c f   GameClientView.obj
 0001:000186ab       $L278010                   004196ab f   GameClientView.obj
 0001:000186ba       $L278011                   004196ba f   GameClientView.obj
 0001:000186c9       $L278012                   004196c9 f   GameClientView.obj
 0001:000186d8       $L278013                   004196d8 f   GameClientView.obj
 0001:000186e7       $L278014                   004196e7 f   GameClientView.obj
 0001:000186f6       $L278015                   004196f6 f   GameClientView.obj
 0001:00018705       $L278016                   00419705 f   GameClientView.obj
 0001:00018714       $L278017                   00419714 f   GameClientView.obj
 0001:00018723       $L278018                   00419723 f   GameClientView.obj
 0001:00018732       $L278019                   00419732 f   GameClientView.obj
 0001:00018741       $L278020                   00419741 f   GameClientView.obj
 0001:0001875b       $L278021                   0041975b f   GameClientView.obj
 0001:0001876a       $L278022                   0041976a f   GameClientView.obj
 0001:00018779       $L278023                   00419779 f   GameClientView.obj
 0001:00018788       $L278024                   00419788 f   GameClientView.obj
 0001:00018797       $L278025                   00419797 f   GameClientView.obj
 0001:000187a6       $L278026                   004197a6 f   GameClientView.obj
 0001:000187b5       $L278027                   004197b5 f   GameClientView.obj
 0001:000187c4       $L278028                   004197c4 f   GameClientView.obj
 0001:000187d3       $L278029                   004197d3 f   GameClientView.obj
 0001:000187e2       $L278030                   004197e2 f   GameClientView.obj
 0001:000187f0       $L278031                   004197f0 f   GameClientView.obj
 0001:000187ff       $L278032                   004197ff f   GameClientView.obj
 0001:0001880e       $L278033                   0041980e f   GameClientView.obj
 0001:0001881d       $L278034                   0041981d f   GameClientView.obj
 0001:0001882c       $L278035                   0041982c f   GameClientView.obj
 0001:0001883b       $L278036                   0041983b f   GameClientView.obj
 0001:0001884a       $L278037                   0041984a f   GameClientView.obj
 0001:00018859       $L278038                   00419859 f   GameClientView.obj
 0001:00018868       $L278039                   00419868 f   GameClientView.obj
 0001:00018877       $L278040                   00419877 f   GameClientView.obj
 0001:00018886       $L278041                   00419886 f   GameClientView.obj
 0001:00018895       $L278042                   00419895 f   GameClientView.obj
 0001:000188a4       $L278043                   004198a4 f   GameClientView.obj
 0001:000188b3       $L278044                   004198b3 f   GameClientView.obj
 0001:000188c2       $L278045                   004198c2 f   GameClientView.obj
 0001:000188d1       $L278046                   004198d1 f   GameClientView.obj
 0001:000188e0       $L278047                   004198e0 f   GameClientView.obj
 0001:000188fa       $L278048                   004198fa f   GameClientView.obj
 0001:00018909       $L278049                   00419909 f   GameClientView.obj
 0001:00018918       $L278050                   00419918 f   GameClientView.obj
 0001:00018926       $L278051                   00419926 f   GameClientView.obj
 0001:00018934       $L278052                   00419934 f   GameClientView.obj
 0001:00018942       $L278053                   00419942 f   GameClientView.obj
 0001:0001895c       $L278054                   0041995c f   GameClientView.obj
 0001:0001896a       $L278055                   0041996a f   GameClientView.obj
 0001:00018978       $L278056                   00419978 f   GameClientView.obj
 0001:00018993       $L278057                   00419993 f   GameClientView.obj
 0001:000189ae       __ehhandler$??0CGameClientView@@QAE@XZ 004199ae f   GameClientView.obj
 0001:000189c0       $L278207                   004199c0 f   GameClientView.obj
 0001:000189c9       $L278208                   004199c9 f   GameClientView.obj
 0001:000189d8       $L278209                   004199d8 f   GameClientView.obj
 0001:000189e7       $L278210                   004199e7 f   GameClientView.obj
 0001:000189f6       $L278211                   004199f6 f   GameClientView.obj
 0001:00018a05       $L278212                   00419a05 f   GameClientView.obj
 0001:00018a14       $L278213                   00419a14 f   GameClientView.obj
 0001:00018a23       $L278214                   00419a23 f   GameClientView.obj
 0001:00018a32       $L278215                   00419a32 f   GameClientView.obj
 0001:00018a4c       $L278216                   00419a4c f   GameClientView.obj
 0001:00018a5b       $L278217                   00419a5b f   GameClientView.obj
 0001:00018a6a       $L278218                   00419a6a f   GameClientView.obj
 0001:00018a79       $L278219                   00419a79 f   GameClientView.obj
 0001:00018a88       $L278220                   00419a88 f   GameClientView.obj
 0001:00018a97       $L278221                   00419a97 f   GameClientView.obj
 0001:00018aa6       $L278222                   00419aa6 f   GameClientView.obj
 0001:00018ab5       $L278223                   00419ab5 f   GameClientView.obj
 0001:00018ac4       $L278224                   00419ac4 f   GameClientView.obj
 0001:00018ad3       $L278225                   00419ad3 f   GameClientView.obj
 0001:00018ae2       $L278226                   00419ae2 f   GameClientView.obj
 0001:00018af1       $L278227                   00419af1 f   GameClientView.obj
 0001:00018b00       $L278228                   00419b00 f   GameClientView.obj
 0001:00018b0f       $L278229                   00419b0f f   GameClientView.obj
 0001:00018b1e       $L278230                   00419b1e f   GameClientView.obj
 0001:00018b2d       $L278231                   00419b2d f   GameClientView.obj
 0001:00018b3c       $L278232                   00419b3c f   GameClientView.obj
 0001:00018b4b       $L278233                   00419b4b f   GameClientView.obj
 0001:00018b5a       $L278234                   00419b5a f   GameClientView.obj
 0001:00018b69       $L278235                   00419b69 f   GameClientView.obj
 0001:00018b78       $L278236                   00419b78 f   GameClientView.obj
 0001:00018b87       $L278237                   00419b87 f   GameClientView.obj
 0001:00018b96       $L278238                   00419b96 f   GameClientView.obj
 0001:00018ba5       $L278239                   00419ba5 f   GameClientView.obj
 0001:00018bb4       $L278240                   00419bb4 f   GameClientView.obj
 0001:00018bc3       $L278241                   00419bc3 f   GameClientView.obj
 0001:00018bd2       $L278242                   00419bd2 f   GameClientView.obj
 0001:00018be1       $L278243                   00419be1 f   GameClientView.obj
 0001:00018bfb       $L278244                   00419bfb f   GameClientView.obj
 0001:00018c0a       $L278245                   00419c0a f   GameClientView.obj
 0001:00018c19       $L278246                   00419c19 f   GameClientView.obj
 0001:00018c28       $L278247                   00419c28 f   GameClientView.obj
 0001:00018c37       $L278248                   00419c37 f   GameClientView.obj
 0001:00018c46       $L278249                   00419c46 f   GameClientView.obj
 0001:00018c55       $L278250                   00419c55 f   GameClientView.obj
 0001:00018c64       $L278251                   00419c64 f   GameClientView.obj
 0001:00018c73       $L278252                   00419c73 f   GameClientView.obj
 0001:00018c82       $L278253                   00419c82 f   GameClientView.obj
 0001:00018c90       $L278254                   00419c90 f   GameClientView.obj
 0001:00018c9f       $L278255                   00419c9f f   GameClientView.obj
 0001:00018cae       $L278256                   00419cae f   GameClientView.obj
 0001:00018cbd       $L278257                   00419cbd f   GameClientView.obj
 0001:00018ccc       $L278258                   00419ccc f   GameClientView.obj
 0001:00018cdb       $L278259                   00419cdb f   GameClientView.obj
 0001:00018cea       $L278260                   00419cea f   GameClientView.obj
 0001:00018cf9       $L278261                   00419cf9 f   GameClientView.obj
 0001:00018d08       $L278262                   00419d08 f   GameClientView.obj
 0001:00018d17       $L278263                   00419d17 f   GameClientView.obj
 0001:00018d26       $L278264                   00419d26 f   GameClientView.obj
 0001:00018d35       $L278265                   00419d35 f   GameClientView.obj
 0001:00018d44       $L278266                   00419d44 f   GameClientView.obj
 0001:00018d53       $L278267                   00419d53 f   GameClientView.obj
 0001:00018d62       $L278268                   00419d62 f   GameClientView.obj
 0001:00018d71       $L278269                   00419d71 f   GameClientView.obj
 0001:00018d80       $L278270                   00419d80 f   GameClientView.obj
 0001:00018d9a       $L278271                   00419d9a f   GameClientView.obj
 0001:00018da9       $L278272                   00419da9 f   GameClientView.obj
 0001:00018db8       $L278273                   00419db8 f   GameClientView.obj
 0001:00018dc6       $L278274                   00419dc6 f   GameClientView.obj
 0001:00018dd4       $L278275                   00419dd4 f   GameClientView.obj
 0001:00018de2       $L278276                   00419de2 f   GameClientView.obj
 0001:00018dfc       $L278277                   00419dfc f   GameClientView.obj
 0001:00018e0a       $L278278                   00419e0a f   GameClientView.obj
 0001:00018e18       $L278279                   00419e18 f   GameClientView.obj
 0001:00018e33       $L278280                   00419e33 f   GameClientView.obj
 0001:00018e4e       $L278281                   00419e4e f   GameClientView.obj
 0001:00018e69       __ehhandler$??1CGameClientView@@UAE@XZ 00419e69 f   GameClientView.obj
 0001:00018e80       $L278623                   00419e80 f   GameClientView.obj
 0001:00018e88       __ehhandler$?InitGameView@CGameClientView@@MAEXPAVCD3DDevice@@HH@Z 00419e88 f   GameClientView.obj
 0001:00018ea0       $L278814                   00419ea0 f   GameClientView.obj
 0001:00018eac       __ehhandler$?DrawGameView@CGameClientView@@MAEXPAVCD3DDevice@@HH@Z 00419eac f   GameClientView.obj
 0001:00018ec0       $L279282                   00419ec0 f   GameClientView.obj
 0001:00018ec9       __ehhandler$?DrawNumber@CGameClientView@@QAEXPAVCD3DDevice@@PAVCD3DTexture@@PA_WV?$CStringT@_WV?$StrTraitMFC_DLL@_WV?$ChTraitsCRT@_W@ATL@@@@@ATL@@HHI@Z 00419ec9 f   GameClientView.obj
 0001:00018ee0       $L279817                   00419ee0 f   GameClientView.obj
 0001:00018eec       $L279818                   00419eec f   GameClientView.obj
 0001:00018ef8       $L279819                   00419ef8 f   GameClientView.obj
 0001:00018f04       __ehhandler$?ShowChatMessage@CGameClientView@@QAEXPB_W0@Z 00419f04 f   GameClientView.obj
 0001:00018f10       $L279838                   00419f10 f   GameClientView.obj
 0001:00018f19       __ehhandler$?ShowCartoonLine@CGameClientView@@QAEX_NE@Z 00419f19 f   GameClientView.obj
 0001:00018f30       $L279886                   00419f30 f   GameClientView.obj
 0001:00018f39       $L279887                   00419f39 f   GameClientView.obj
 0001:00018f42       $L279888                   00419f42 f   GameClientView.obj
 0001:00018f4b       $L279889                   00419f4b f   GameClientView.obj
 0001:00018f54       __ehhandler$?EfficacyUserChat@CGameClientView@@QAE_NPB_WG@Z 00419f54 f   GameClientView.obj
 0001:00018f60       $L279947                   00419f60 f   GameClientView.obj
 0001:00018f69       $L279948                   00419f69 f   GameClientView.obj
 0001:00018f72       __ehhandler$?OnBnClickedEnter@CGameClientView@@QAEXXZ 00419f72 f   GameClientView.obj
 0001:00018f80       $L279989                   00419f80 f   GameClientView.obj
 0001:00018f89       __ehhandler$?PreTranslateMessage@CGameClientView@@UAEHPAUtagMSG@@@Z 00419f89 f   GameClientView.obj
 0001:00018fa0       $L276734                   00419fa0 f   GameFrameWindow.obj
 0001:00018fa8       $L276735                   00419fa8 f   GameFrameWindow.obj
 0001:00018fb6       $L276736                   00419fb6 f   GameFrameWindow.obj
 0001:00018fc5       $L276737                   00419fc5 f   GameFrameWindow.obj
 0001:00018fd3       $L276738                   00419fd3 f   GameFrameWindow.obj
 0001:00018fe1       $L276739                   00419fe1 f   GameFrameWindow.obj
 0001:00018fef       $L276740                   00419fef f   GameFrameWindow.obj
 0001:00018ffd       $L276741                   00419ffd f   GameFrameWindow.obj
 0001:0001900c       $L276742                   0041a00c f   GameFrameWindow.obj
 0001:0001901b       __ehhandler$??1CGameFrameWindow@@UAE@XZ 0041a01b f   GameFrameWindow.obj
 0001:00019030       $L277154                   0041a030 f   GameFrameWindow.obj
 0001:0001903c       __ehhandler$?OnCommand@CGameFrameWindow@@MAEHIJ@Z 0041a03c f   GameFrameWindow.obj
 0001:00019050       $L277395                   0041a050 f   GameFrameWindow.obj
 0001:00019058       $L277396                   0041a058 f   GameFrameWindow.obj
 0001:00019064       __ehhandler$?OnPaint@CGameFrameWindow@@QAEXXZ 0041a064 f   GameFrameWindow.obj
 0001:00019070       $L277439                   0041a070 f   GameFrameWindow.obj
 0001:00019078       $L277440                   0041a078 f   GameFrameWindow.obj
 0001:00019086       $L277441                   0041a086 f   GameFrameWindow.obj
 0001:00019095       $L277442                   0041a095 f   GameFrameWindow.obj
 0001:000190a3       $L277443                   0041a0a3 f   GameFrameWindow.obj
 0001:000190b1       $L277444                   0041a0b1 f   GameFrameWindow.obj
 0001:000190bf       $L277445                   0041a0bf f   GameFrameWindow.obj
 0001:000190cd       $L277446                   0041a0cd f   GameFrameWindow.obj
 0001:000190dc       $L277447                   0041a0dc f   GameFrameWindow.obj
 0001:000190eb       $L277448                   0041a0eb f   GameFrameWindow.obj
 0001:000190fa       __ehhandler$??0CGameFrameWindow@@QAE@XZ 0041a0fa f   GameFrameWindow.obj
 0001:00019110       $L276216                   0041a110 f   ScoreControl.obj
 0001:00019119       $L276217                   0041a119 f   ScoreControl.obj
 0001:00019128       $L276218                   0041a128 f   ScoreControl.obj
 0001:00019137       $L276219                   0041a137 f   ScoreControl.obj
 0001:00019146       $L276220                   0041a146 f   ScoreControl.obj
 0001:00019155       $L276221                   0041a155 f   ScoreControl.obj
 0001:00019164       $L276222                   0041a164 f   ScoreControl.obj
 0001:00019173       $L276223                   0041a173 f   ScoreControl.obj
 0001:00019182       __ehhandler$??1CScoreControl@@UAE@XZ 0041a182 f   ScoreControl.obj
 0001:00019190       $L276295                   0041a190 f   ScoreControl.obj
 0001:00019199       $L276296                   0041a199 f   ScoreControl.obj
 0001:000191a8       $L276297                   0041a1a8 f   ScoreControl.obj
 0001:000191b7       $L276298                   0041a1b7 f   ScoreControl.obj
 0001:000191c6       $L276299                   0041a1c6 f   ScoreControl.obj
 0001:000191d5       $L276300                   0041a1d5 f   ScoreControl.obj
 0001:000191e4       $L276301                   0041a1e4 f   ScoreControl.obj
 0001:000191f3       $L276302                   0041a1f3 f   ScoreControl.obj
 0001:00019202       __ehhandler$??0CScoreControl@@QAE@XZ 0041a202 f   ScoreControl.obj
 0001:00019210       $L275044                   0041a210 f   SkinButtonEx.obj
 0001:0001921b       $L275045                   0041a21b f   SkinButtonEx.obj
 0001:00019226       $L275046                   0041a226 f   SkinButtonEx.obj
 0001:00019232       __ehhandler$?DrawItem@CSkinButtonEx@@MAEXPAUtagDRAWITEMSTRUCT@@@Z 0041a232 f   SkinButtonEx.obj
 0001:00019240       $L275390                   0041a240 f   SkinHorizontalScrollbar.obj
 0001:00019248       __ehhandler$??0CMemDC@@QAE@PAVCDC@@ABVCRect@@@Z 0041a248 f   SkinHorizontalScrollbar.obj
 0001:00019260       $L275502                   0041a260 f   SkinHorizontalScrollbar.obj
 0001:00019268       __ehhandler$??1CMemDC@@UAE@XZ 0041a268 f   SkinHorizontalScrollbar.obj
 0001:00019280       $L275656                   0041a280 f   SkinHorizontalScrollbar.obj
 0001:00019288       $L275657                   0041a288 f   SkinHorizontalScrollbar.obj
 0001:00019290       $L275658                   0041a290 f   SkinHorizontalScrollbar.obj
 0001:00019298       $L275659                   0041a298 f   SkinHorizontalScrollbar.obj
 0001:000192a3       __ehhandler$?Draw@CSkinHorizontalScrollbar@@AAEXXZ 0041a2a3 f   SkinHorizontalScrollbar.obj
 0001:000192b0       $L275839                   0041a2b0 f   SkinHorizontalScrollbar.obj
 0001:000192b8       __ehhandler$?OnPaint@CSkinHorizontalScrollbar@@IAEXXZ 0041a2b8 f   SkinHorizontalScrollbar.obj
 0001:000192d0       $L275681                   0041a2d0 f   SkinVerticleScrollbar.obj
 0001:000192d8       $L275682                   0041a2d8 f   SkinVerticleScrollbar.obj
 0001:000192e0       $L275683                   0041a2e0 f   SkinVerticleScrollbar.obj
 0001:000192e8       $L275684                   0041a2e8 f   SkinVerticleScrollbar.obj
 0001:000192f3       __ehhandler$?Draw@CSkinVerticleScrollbar@@AAEXXZ 0041a2f3 f   SkinVerticleScrollbar.obj
 0001:00019300       $L275952                   0041a300 f   SkinVerticleScrollbar.obj
 0001:00019308       __ehhandler$?OnPaint@CSkinVerticleScrollbar@@IAEXXZ 0041a308 f   SkinVerticleScrollbar.obj
 0001:00019320       $L279220                   0041a320 f   Stdafx.obj
 0001:00019329       __ehhandler$??$use_facet@V?$ctype@D@std@@@std@@YAABV?$ctype@D@0@ABVlocale@0@@Z 0041a329 f   Stdafx.obj
 0001:00019340       $L279238                   0041a340 f   Stdafx.obj
 0001:00019349       __ehhandler$??$use_facet@V?$ctype@_W@std@@@std@@YAABV?$ctype@_W@0@ABVlocale@0@@Z 0041a349 f   Stdafx.obj
 0001:00019360       $L279252                   0041a360 f   Stdafx.obj
 0001:00019369       $L279253                   0041a369 f   Stdafx.obj
 0001:00019383       __ehhandler$??$?HDU?$char_traits@D@std@@V?$allocator@D@1@@std@@YA?AV?$basic_string@DU?$char_traits@D@std@@V?$allocator@D@2@@0@ABV10@0@Z 0041a383 f   Stdafx.obj
 0001:00019390       $L279266                   0041a390 f   Stdafx.obj
 0001:00019399       $L279267                   0041a399 f   Stdafx.obj
 0001:000193b3       __ehhandler$??$?HDU?$char_traits@D@std@@V?$allocator@D@1@@std@@YA?AV?$basic_string@DU?$char_traits@D@std@@V?$allocator@D@2@@0@PBDABV10@@Z 0041a3b3 f   Stdafx.obj
 0001:000193c0       $L279280                   0041a3c0 f   Stdafx.obj
 0001:000193c9       $L279281                   0041a3c9 f   Stdafx.obj
 0001:000193e3       __ehhandler$??$?HDU?$char_traits@D@std@@V?$allocator@D@1@@std@@YA?AV?$basic_string@DU?$char_traits@D@std@@V?$allocator@D@2@@0@DABV10@@Z 0041a3e3 f   Stdafx.obj
 0001:000193f0       $L279294                   0041a3f0 f   Stdafx.obj
 0001:000193f9       $L279295                   0041a3f9 f   Stdafx.obj
 0001:00019413       __ehhandler$??$?HDU?$char_traits@D@std@@V?$allocator@D@1@@std@@YA?AV?$basic_string@DU?$char_traits@D@std@@V?$allocator@D@2@@0@ABV10@PBD@Z 0041a413 f   Stdafx.obj
 0001:00019420       $L279308                   0041a420 f   Stdafx.obj
 0001:00019429       $L279309                   0041a429 f   Stdafx.obj
 0001:00019443       __ehhandler$??$?HDU?$char_traits@D@std@@V?$allocator@D@1@@std@@YA?AV?$basic_string@DU?$char_traits@D@std@@V?$allocator@D@2@@0@ABV10@D@Z 0041a443 f   Stdafx.obj
 0001:00019450       $L279322                   0041a450 f   Stdafx.obj
 0001:00019459       $L279323                   0041a459 f   Stdafx.obj
 0001:00019473       __ehhandler$??$?H_WU?$char_traits@_W@std@@V?$allocator@_W@1@@std@@YA?AV?$basic_string@_WU?$char_traits@_W@std@@V?$allocator@_W@2@@0@ABV10@0@Z 0041a473 f   Stdafx.obj
 0001:00019480       $L279336                   0041a480 f   Stdafx.obj
 0001:00019489       $L279337                   0041a489 f   Stdafx.obj
 0001:000194a3       __ehhandler$??$?H_WU?$char_traits@_W@std@@V?$allocator@_W@1@@std@@YA?AV?$basic_string@_WU?$char_traits@_W@std@@V?$allocator@_W@2@@0@PB_WABV10@@Z 0041a4a3 f   Stdafx.obj
 0001:000194b0       $L279350                   0041a4b0 f   Stdafx.obj
 0001:000194b9       $L279351                   0041a4b9 f   Stdafx.obj
 0001:000194d3       __ehhandler$??$?H_WU?$char_traits@_W@std@@V?$allocator@_W@1@@std@@YA?AV?$basic_string@_WU?$char_traits@_W@std@@V?$allocator@_W@2@@0@_WABV10@@Z 0041a4d3 f   Stdafx.obj
 0001:000194e0       $L279364                   0041a4e0 f   Stdafx.obj
 0001:000194e9       $L279365                   0041a4e9 f   Stdafx.obj
 0001:00019503       __ehhandler$??$?H_WU?$char_traits@_W@std@@V?$allocator@_W@1@@std@@YA?AV?$basic_string@_WU?$char_traits@_W@std@@V?$allocator@_W@2@@0@ABV10@PB_W@Z 0041a503 f   Stdafx.obj
 0001:00019510       $L279378                   0041a510 f   Stdafx.obj
 0001:00019519       $L279379                   0041a519 f   Stdafx.obj
 0001:00019533       __ehhandler$??$?H_WU?$char_traits@_W@std@@V?$allocator@_W@1@@std@@YA?AV?$basic_string@_WU?$char_traits@_W@std@@V?$allocator@_W@2@@0@ABV10@_W@Z 0041a533 f   Stdafx.obj
 0001:00019540       $L279466                   0041a540 f   Stdafx.obj
 0001:00019548       __ehhandler$??0sentry@?$basic_istream@DU?$char_traits@D@std@@@std@@QAE@AAV12@_N@Z 0041a548 f   Stdafx.obj
 0001:00019560       $L279480                   0041a560 f   Stdafx.obj
 0001:00019568       __ehhandler$??0sentry@?$basic_istream@_WU?$char_traits@_W@std@@@std@@QAE@AAV12@_N@Z 0041a568 f   Stdafx.obj
 0001:00019580       $L279494                   0041a580 f   Stdafx.obj
 0001:00019588       __ehhandler$??0sentry@?$basic_ostream@DU?$char_traits@D@std@@@std@@QAE@AAV12@@Z 0041a588 f   Stdafx.obj
 0001:000195a0       $L279508                   0041a5a0 f   Stdafx.obj
 0001:000195a8       __ehhandler$??1sentry@?$basic_ostream@DU?$char_traits@D@std@@@std@@QAE@XZ 0041a5a8 f   Stdafx.obj
 0001:000195c0       $L279522                   0041a5c0 f   Stdafx.obj
 0001:000195c8       __ehhandler$??0sentry@?$basic_ostream@_WU?$char_traits@_W@std@@@std@@QAE@AAV12@@Z 0041a5c8 f   Stdafx.obj
 0001:000195e0       $L279536                   0041a5e0 f   Stdafx.obj
 0001:000195e8       __ehhandler$??1sentry@?$basic_ostream@_WU?$char_traits@_W@std@@@std@@QAE@XZ 0041a5e8 f   Stdafx.obj
 0001:00019600       $L279557                   0041a600 f   Stdafx.obj
 0001:00019608       $L279558                   0041a608 f   Stdafx.obj
 0001:00019611       __ehhandler$??$?5DU?$char_traits@D@std@@V?$allocator@D@1@@std@@YAAAV?$basic_istream@DU?$char_traits@D@std@@@0@AAV10@AAV?$basic_string@DU?$char_traits@D@std@@V?$allocator@D@2@@0@@Z 0041a611 f   Stdafx.obj
 0001:00019620       $L279596                   0041a620 f   Stdafx.obj
 0001:00019628       __ehhandler$??$getline@DU?$char_traits@D@std@@V?$allocator@D@2@@std@@YAAAV?$basic_istream@DU?$char_traits@D@std@@@0@AAV10@AAV?$basic_string@DU?$char_traits@D@std@@V?$allocator@D@2@@0@D@Z 0041a628 f   Stdafx.obj
 0001:00019640       $L279639                   0041a640 f   Stdafx.obj
 0001:00019648       __ehhandler$??$?6DU?$char_traits@D@std@@V?$allocator@D@1@@std@@YAAAV?$basic_ostream@DU?$char_traits@D@std@@@0@AAV10@ABV?$basic_string@DU?$char_traits@D@std@@V?$allocator@D@2@@0@@Z 0041a648 f   Stdafx.obj
 0001:00019660       $L279669                   0041a660 f   Stdafx.obj
 0001:00019668       $L279670                   0041a668 f   Stdafx.obj
 0001:00019671       __ehhandler$??$?5_WU?$char_traits@_W@std@@V?$allocator@_W@1@@std@@YAAAV?$basic_istream@_WU?$char_traits@_W@std@@@0@AAV10@AAV?$basic_string@_WU?$char_traits@_W@std@@V?$allocator@_W@2@@0@@Z 0041a671 f   Stdafx.obj
 0001:00019680       $L279708                   0041a680 f   Stdafx.obj
 0001:00019688       __ehhandler$??$getline@_WU?$char_traits@_W@std@@V?$allocator@_W@2@@std@@YAAAV?$basic_istream@_WU?$char_traits@_W@std@@@0@AAV10@AAV?$basic_string@_WU?$char_traits@_W@std@@V?$allocator@_W@2@@0@_W@Z 0041a688 f   Stdafx.obj
 0001:000196a0       $L279751                   0041a6a0 f   Stdafx.obj
 0001:000196a8       __ehhandler$??$?6_WU?$char_traits@_W@std@@V?$allocator@_W@1@@std@@YAAAV?$basic_ostream@_WU?$char_traits@_W@std@@@0@AAV10@ABV?$basic_string@_WU?$char_traits@_W@std@@V?$allocator@_W@2@@0@@Z 0041a6a8 f   Stdafx.obj
 0001:000196c0       $L276446                   0041a6c0 f   StringMessage.obj
 0001:000196c9       __ehhandler$?SendMessageToEngine@CStringMessage@@AAEXV?$CStringT@_WV?$StrTraitMFC_DLL@_WV?$ChTraitsCRT@_W@ATL@@@@@ATL@@H@Z 0041a6c9 f   StringMessage.obj
 0001:000196e0       $L276650                   0041a6e0 f   StringMessage.obj
 0001:000196e9       __ehhandler$?InsertUserEnter@CStringMessage@@UAE_NPB_W@Z 0041a6e9 f   StringMessage.obj
 0001:00019700       $L276663                   0041a700 f   StringMessage.obj
 0001:00019709       __ehhandler$?InsertUserLeave@CStringMessage@@UAE_NPB_W@Z 0041a709 f   StringMessage.obj
 0001:00019720       $L276676                   0041a720 f   StringMessage.obj
 0001:00019729       __ehhandler$?InsertUserOffLine@CStringMessage@@UAE_NPB_W@Z 0041a729 f   StringMessage.obj
 0001:00019740       $L276689                   0041a740 f   StringMessage.obj
 0001:00019749       __ehhandler$?InsertNormalString@CStringMessage@@UAE_NPB_W@Z 0041a749 f   StringMessage.obj
 0001:00019760       $L276702                   0041a760 f   StringMessage.obj
 0001:00019769       __ehhandler$?InsertSystemString@CStringMessage@@UAE_NPB_W@Z 0041a769 f   StringMessage.obj
 0001:00019780       $L276715                   0041a780 f   StringMessage.obj
 0001:00019789       __ehhandler$?InsertPromptString@CStringMessage@@UAE_NPB_W@Z 0041a789 f   StringMessage.obj
 0001:000197a0       $L276728                   0041a7a0 f   StringMessage.obj
 0001:000197a9       __ehhandler$?InsertAfficheString@CStringMessage@@UAE_NPB_W@Z 0041a7a9 f   StringMessage.obj
 0001:000197c0       $L276741                   0041a7c0 f   StringMessage.obj
 0001:000197c9       __ehhandler$?InsertCustomString@CStringMessage@@UAE_NPB_WK@Z 0041a7c9 f   StringMessage.obj
 0001:000197e0       $L276754                   0041a7e0 f   StringMessage.obj
 0001:000197e9       __ehhandler$?InsertUserChat@CStringMessage@@UAE_NPB_W0K@Z 0041a7e9 f   StringMessage.obj
 0001:00019800       $L276767                   0041a800 f   StringMessage.obj
 0001:00019809       __ehhandler$?InsertUserChat@CStringMessage@@UAE_NPB_W00K@Z 0041a809 f   StringMessage.obj
 0001:00019820       $L276780                   0041a820 f   StringMessage.obj
 0001:00019829       __ehhandler$?InsertWhisperChat@CStringMessage@@UAE_NPB_W0K_N@Z 0041a829 f   StringMessage.obj
 0001:00019840       $L276793                   0041a840 f   StringMessage.obj
 0001:00019849       __ehhandler$?InsertUserTrumpet@CStringMessage@@UAE_NPB_W0K@Z 0041a849 f   StringMessage.obj
 0001:00019860       $L276806                   0041a860 f   StringMessage.obj
 0001:00019869       __ehhandler$?InsertUserTyphon@CStringMessage@@UAE_NPB_W0K@Z 0041a869 f   StringMessage.obj
 0001:00019880       _$E5                       0041a880 f   CardControl.obj
 0001:000198a0       _$E5                       0041a8a0 f   GameClient.obj
 0001:000198c0       _$E5                       0041a8c0 f   GameClientEngine.obj
 0001:000198d0       _$E5                       0041a8d0 f   GameClientView.obj
 0001:000198e0       _$E1                       0041a8e0 f   Stdafx.obj
 0001:000198f6       _$E1                       0041a8f6 f   mfcs71u:stdafx.obj
 0001:0001990c       _$E5                       0041a90c f   atls:atlbase.obj
 0001:00019922       _$E1                       0041a922 f   atls:atlbase.obj
 0001:00019938       _$E5                       0041a938 f   mfcs71u:appmodul.obj
 0001:00019950       _$E6                       0041a950 f   CardControl.obj
 0001:00019960       _$E6                       0041a960 f   GameClient.obj
 0001:00019970       _$E2                       0041a970 f   Stdafx.obj
 0001:0001997a       _$E2                       0041a97a f   mfcs71u:stdafx.obj
 0001:00019984       _$E6                       0041a984 f   atls:atlbase.obj
 0001:0001998e       _$E2                       0041a98e f   atls:atlbase.obj

Line numbers for .\Release_Unicode\StringMessage.obj(h:\ry\\\\ d3d\stringmessage.cpp) segment .text

    18 0001:000161b0    19 0001:000161b6   120 0001:000161e0   119 0001:000161e0
   121 0001:000161e2   125 0001:000161f0   126 0001:000161f0   127 0001:000161f2
   132 0001:00016200   131 0001:00016200   133 0001:00016202   138 0001:00016210
   137 0001:00016210   139 0001:00016212   191 0001:00016220   192 0001:0001623f
   193 0001:00016247   195 0001:0001624d   197 0001:00016253   202 0001:0001626c
    24 0001:000162a0    25 0001:000162a0    26 0001:000162b1    30 0001:000162c0
    29 0001:000162c0    31 0001:000162fb    33 0001:00016327    32 0001:0001632d
    33 0001:00016330    37 0001:00016340    38 0001:00016359    39 0001:00016368
    41 0001:00016388    42 0001:000163a3    43 0001:000163ad    46 0001:000163d0
    47 0001:000163e9    48 0001:000163f8    50 0001:00016418    51 0001:00016433
    52 0001:0001643d    55 0001:00016460    56 0001:00016479    57 0001:00016488
    59 0001:000164a8    60 0001:000164c3    61 0001:000164cd    65 0001:000164f0
    67 0001:00016509    68 0001:00016518    70 0001:0001652f    72 0001:0001654a
    73 0001:00016554    76 0001:00016570    77 0001:00016589    78 0001:00016598
    79 0001:000165af    81 0001:000165ca    82 0001:000165d4    86 0001:000165f0
    87 0001:00016609    88 0001:00016618    90 0001:0001662f    92 0001:0001664a
    93 0001:00016654    97 0001:00016670    98 0001:00016689    99 0001:00016698
   101 0001:000166af   103 0001:000166ca   104 0001:000166d4   108 0001:000166f0
   109 0001:00016709   110 0001:00016718   112 0001:0001672f   114 0001:0001674a
   115 0001:00016754   143 0001:00016770   145 0001:00016789   146 0001:00016798
   148 0001:000167bd   150 0001:000167d8   151 0001:000167e2   155 0001:00016800
   156 0001:00016819   157 0001:00016828   158 0001:0001683f   159 0001:0001685a
   160 0001:00016864   164 0001:00016880   165 0001:00016899   166 0001:000168a8
   167 0001:000168bf   168 0001:000168da   169 0001:000168e4   173 0001:00016900
   174 0001:00016919   175 0001:00016928   176 0001:0001693f   177 0001:0001695a
   178 0001:00016964   182 0001:00016980   183 0001:00016999   184 0001:000169a8
   185 0001:000169bf   186 0001:000169da   187 0001:000169e4    13 0001:00016a00
    14 0001:00016a08

Line numbers for .\Release_Unicode\Stdafx.obj(c:\program files (x86)\microsoft visual studio .net 2003\vc7\atlmfc\include\atlbase.h) segment .text

  6215 0001:00014fd0  6216 0001:00014fd1  6217 0001:00014fda  6218 0001:00014fdc
  6219 0001:00014fe0  6220 0001:00014fe2  6221 0001:00014fe8  6229 0001:00014fee
  6223 0001:00014ff1  6224 0001:00014ff8  6225 0001:00015020  6226 0001:00015034
  6227 0001:00015045  6228 0001:00015049  6229 0001:0001504c  2588 0001:00016060
  2587 0001:00016060  2589 0001:0001606c  2573 0001:00016130  2575 0001:00016157
  2576 0001:0001615d  2577 0001:00016165  2579 0001:00016167  2578 0001:0001616b
  2579 0001:00016174  2583 0001:00016180  2582 0001:00016180  2584 0001:00016190
  2602 0001:000198e0

Line numbers for .\Release_Unicode\Stdafx.obj(c:\program files (x86)\microsoft visual studio .net 2003\vc7\include\string) segment .text

    21 0001:00014ad0    22 0001:00014ae8    23 0001:00014b39    31 0001:00014b50
    32 0001:00014b68    33 0001:00014bb9    41 0001:00014bd0    42 0001:00014be8
    43 0001:00014c3b    51 0001:00014c50    52 0001:00014c68    53 0001:00014cb9
    61 0001:00014cd0    62 0001:00014ce8    63 0001:00014d39    21 0001:00014d50
    22 0001:00014d68    23 0001:00014db9    31 0001:00014dd0    32 0001:00014de8
    33 0001:00014e39    41 0001:00014e50    42 0001:00014e68    43 0001:00014ebb
    51 0001:00014ed0    52 0001:00014ee8    53 0001:00014f39    61 0001:00014f50
    62 0001:00014f68    63 0001:00014fb9   425 0001:00015460   433 0001:0001547d
   435 0001:00015497   437 0001:000154a5   438 0001:000154d3   443 0001:000154e8
   444 0001:0001552f   446 0001:00015546   447 0001:00015551   449 0001:0001556f
   450 0001:00015573   453 0001:00015575   457 0001:00015592   458 0001:000155b1
   460 0001:000155c6   463 0001:000155e3   464 0001:000155f9   465 0001:00015600
   466 0001:00015604   467 0001:00015617   468 0001:0001564a   477 0001:00015660
   481 0001:0001567d   483 0001:00015698   486 0001:000156a6   488 0001:000156be
   489 0001:000156cb   492 0001:000156e6   494 0001:00015704   495 0001:00015708
   497 0001:0001570d   500 0001:00015722   501 0001:0001573b   503 0001:0001573d
   505 0001:00015753   510 0001:00015759   511 0001:00015776   513 0001:0001578d
   516 0001:000157aa   517 0001:000157b8   518 0001:000157bc   519 0001:000157cf
   520 0001:00015802   538 0001:00015820   544 0001:0001583b   546 0001:0001584f
   547 0001:00015892   549 0001:0001589b   550 0001:000158a9   551 0001:000158b0
   554 0001:000158b5   555 0001:000158d0   557 0001:000158d4   559 0001:0001591e
   563 0001:00015922   564 0001:0001592d   566 0001:00015934   568 0001:0001597b
   572 0001:0001597f   573 0001:00015986   575 0001:0001598d   577 0001:000159d3
   580 0001:000159d7   555 0001:000159e8   564 0001:000159f6   573 0001:000159ff
   581 0001:00015a04   584 0001:00015a21   585 0001:00015a3b   586 0001:00015a4a
   425 0001:00015a60   433 0001:00015a7d   435 0001:00015a97   437 0001:00015aa5
   438 0001:00015ad3   443 0001:00015ae8   444 0001:00015b2f   446 0001:00015b46
   447 0001:00015b51   449 0001:00015b6f   450 0001:00015b73   453 0001:00015b75
   457 0001:00015b92   458 0001:00015bb1   460 0001:00015bc6   463 0001:00015be3
   464 0001:00015bf9   465 0001:00015c00   466 0001:00015c04   467 0001:00015c17
   468 0001:00015c4a   477 0001:00015c60   481 0001:00015c7d   483 0001:00015c98
   486 0001:00015ca6   488 0001:00015cbe   489 0001:00015cce   492 0001:00015ce6
   494 0001:00015d04   495 0001:00015d08   497 0001:00015d0d   500 0001:00015d22
   501 0001:00015d3b   503 0001:00015d3d   505 0001:00015d53   510 0001:00015d59
   511 0001:00015d76   513 0001:00015d8d   516 0001:00015daa   517 0001:00015db8
   518 0001:00015dbc   519 0001:00015dcf   520 0001:00015e02   538 0001:00015e20
   544 0001:00015e3b   546 0001:00015e4f   547 0001:00015e90   549 0001:00015e99
   550 0001:00015ea3   551 0001:00015eaa   554 0001:00015eaf   555 0001:00015ed0
   557 0001:00015ed7   559 0001:00015f21   563 0001:00015f25   564 0001:00015f32
   566 0001:00015f37   568 0001:00015f7f   572 0001:00015f83   573 0001:00015f90
   575 0001:00015f97   577 0001:00015fdd   580 0001:00015fe1   555 0001:00015ff2
   564 0001:00015ffa   573 0001:00016000   581 0001:00016005   584 0001:00016022
   585 0001:0001603c   586 0001:0001604b   528 0001:000160d0   529 0001:000160d1
   530 0001:000160f4   528 0001:00016100   529 0001:00016101   530 0001:00016124

Line numbers for .\Release_Unicode\Stdafx.obj(c:\program files (x86)\microsoft visual studio .net 2003\vc7\include\xlocale) segment .text

   315 0001:00014930   316 0001:00014949   318 0001:00014955   320 0001:0001495a
   321 0001:00014972   323 0001:0001497f   325 0001:00014983   327 0001:00014989
   330 0001:0001499e   338 0001:000149bc   339 0001:000149c3   341 0001:000149c9
   342 0001:000149cb   343 0001:000149d1   346 0001:000149da   347 0001:000149ec
   315 0001:00014a00   316 0001:00014a19   318 0001:00014a25   320 0001:00014a2a
   321 0001:00014a42   323 0001:00014a4f   325 0001:00014a53   327 0001:00014a59
   330 0001:00014a6e   338 0001:00014a8c   339 0001:00014a93   341 0001:00014a99
   342 0001:00014a9b   343 0001:00014aa1   346 0001:00014aaa   347 0001:00014abc

Line numbers for .\Release_Unicode\Stdafx.obj(c:\program files (x86)\microsoft visual studio .net 2003\vc7\include\ostream) segment .text

   109 0001:00014830   108 0001:00014830   110 0001:00014833   109 0001:00014840
   108 0001:00014840   110 0001:00014843    68 0001:00014850    69 0001:00014859
    70 0001:0001486a    71 0001:00014881    74 0001:00014890    75 0001:00014893
    76 0001:000148a6    77 0001:000148bf    68 0001:000148c0    69 0001:000148c9
    70 0001:000148da    71 0001:000148f1    74 0001:00014900    75 0001:00014903
    76 0001:00014916    77 0001:0001492f    88 0001:00015200    89 0001:0001524c
    90 0001:00015276    91 0001:0001528b    92 0001:00015298    95 0001:000152b0
    98 0001:000152d5    99 0001:000152df   100 0001:000152e7    88 0001:00015330
    89 0001:0001537c    90 0001:000153a6    91 0001:000153bb    92 0001:000153c8
    95 0001:000153e0    98 0001:00015405    99 0001:0001540f   100 0001:00015417

Line numbers for .\Release_Unicode\Stdafx.obj(c:\program files (x86)\microsoft visual studio .net 2003\vc7\include\istream) segment .text

    78 0001:00014730    77 0001:00014730    79 0001:00014733    58 0001:00014740
    59 0001:00014743    60 0001:00014756    61 0001:0001476f    77 0001:00014770
    78 0001:00014770    79 0001:00014773    58 0001:00014780    59 0001:00014783
    60 0001:00014796    61 0001:000147af    52 0001:000147b0    53 0001:000147b9
    54 0001:000147ca    55 0001:000147e1    52 0001:000147f0    53 0001:000147f9
    54 0001:0001480a    55 0001:00014821    72 0001:00015100    73 0001:0001514b
    74 0001:00015160    72 0001:00015180    73 0001:000151cb    74 0001:000151e0

Line numbers for .\Release_Unicode\Stdafx.obj(c:\program files (x86)\microsoft visual studio .net 2003\vc7\atlmfc\include\atlsimpcoll.h) segment .text

    97 0001:000146b0   136 0001:000146c0   135 0001:000146c0   137 0001:000146c3
   173 0001:000146d0   174 0001:000146d3   178 0001:000146dc   179 0001:000146e6
   181 0001:000146e8   182 0001:000146eb   183 0001:000146f0   196 0001:00014700
   194 0001:00014700   200 0001:0001470d   201 0001:00014712   100 0001:000150d0
   101 0001:000150d3   102 0001:000150f0

Line numbers for .\Release_Unicode\Stdafx.obj(c:\program files (x86)\microsoft visual studio .net 2003\vc7\atlmfc\include\atlbase.inl) segment .text

   353 0001:00014680   352 0001:00014680   354 0001:00014686   357 0001:00014688
   358 0001:0001468d   369 0001:00014692   362 0001:00014695   369 0001:000146a4

Line numbers for .\Release_Unicode\Stdafx.obj(c:\program files (x86)\microsoft visual studio .net 2003\vc7\atlmfc\include\atlcore.h) segment .text

   114 0001:000145c0   116 0001:000145c2   117 0001:000145d7   129 0001:000145e0
   130 0001:00014606   131 0001:00014608   133 0001:0001460b   136 0001:00014614
   138 0001:00014627   143 0001:00014647   144 0001:00014649   148 0001:00014660
   147 0001:00014660   149 0001:00014667   150 0001:00014669   207 0001:00014670
   206 0001:00014670   208 0001:00014673

Line numbers for .\Release_Unicode\Stdafx.obj(c:\program files (x86)\microsoft visual studio .net 2003\vc7\atlmfc\include\atlexcept.h) segment .text

    27 0001:000145a0    26 0001:000145a0    28 0001:000145b4

Line numbers for .\Release_Unicode\Stdafx.obj(c:\program files (x86)\microsoft visual studio .net 2003\vc7\atlmfc\include\atlconv.h) segment .text

    92 0001:00014490    91 0001:00014490   101 0001:000144a0   102 0001:000144ad
   104 0001:000144af   110 0001:000144b5   113 0001:000144cc   116 0001:000144d8
   120 0001:000144e9   121 0001:000144ed   124 0001:000144f4   127 0001:00014520
   128 0001:00014520   129 0001:00014525   134 0001:00014530   139 0001:00014542
   140 0001:00014554   143 0001:00014560   147 0001:00014567   149 0001:0001456c
   151 0001:00014578   152 0001:0001457e

Line numbers for .\Release_Unicode\SkinVerticleScrollbar.obj(c:\program files (x86)\microsoft visual studio .net 2003\vc7\atlmfc\include\afxwin2.inl) segment .text

   366 0001:00013bc0   817 0001:00013bd0   854 0001:00013bf0   893 0001:00013c10

Line numbers for .\Release_Unicode\SkinVerticleScrollbar.obj(h:\ry\\\\ d3d\skinverticlescrollbar.cpp) segment .text

    30 0001:00013b80    31 0001:00013b86    34 0001:00013b90    34 0001:00013ba0
   177 0001:00013bb0   175 0001:00013bb0    17 0001:00013c30    23 0001:00013c38
    24 0001:00013c4c    25 0001:00013c4f    27 0001:00013c5f    50 0001:00013c90
    49 0001:00013c90    51 0001:00013c95    54 0001:00013ca0    55 0001:00013ca8
    57 0001:00013cb9    59 0001:00013cc8    64 0001:00013cd0    66 0001:00013d2c
    69 0001:00013d30    71 0001:00013d3d    74 0001:00013d41    76 0001:00013d4e
    79 0001:00013d52    80 0001:00013d5d   342 0001:00013d70   348 0001:00013d70
   363 0001:00013d81   364 0001:00013d86   277 0001:00013d90   278 0001:00013db1
   280 0001:00013dbb   281 0001:00013dd3   282 0001:00013df9   283 0001:00013e14
   284 0001:00013e1d   286 0001:00013e3a   287 0001:00013e46   288 0001:00013e70
   292 0001:00013e7f   295 0001:00013e87   297 0001:00013ea0   302 0001:00013ecb
   305 0001:00013eee   306 0001:00013f10   309 0001:00013f22   310 0001:00013f2d
   312 0001:00013f43   314 0001:00013f4a   316 0001:00013f71   317 0001:00013f87
   320 0001:00013f8f   321 0001:00013fdc   324 0001:00014000   326 0001:00014005
   328 0001:00014018   330 0001:0001403a   333 0001:00014055   335 0001:0001405f
   339 0001:00014067   132 0001:00014070   134 0001:00014076   136 0001:00014088
   138 0001:00014092   146 0001:0001409a   147 0001:000140aa   150 0001:000140c2
   152 0001:000140cb   153 0001:000140d4   154 0001:000140de   155 0001:000140e6
   157 0001:00014147   162 0001:00014151   163 0001:00014159   166 0001:00014160
   167 0001:00014184   169 0001:0001418e   171 0001:0001419d   172 0001:000141ae
   245 0001:000141d0   247 0001:000141d6   252 0001:000141e5   254 0001:000141ea
   255 0001:000141f3   257 0001:00014211   259 0001:00014213   260 0001:0001421b
   265 0001:00014239   266 0001:00014253   268 0001:00014257   270 0001:0001425f
   271 0001:00014269   274 0001:00014271   180 0001:00014280   182 0001:00014283
   184 0001:00014288   188 0001:00014297   191 0001:0001429d   188 0001:000142a5
   191 0001:000142b2   197 0001:000142c0   198 0001:000142c3   200 0001:000142c8
   204 0001:000142d7   207 0001:000142dd   204 0001:000142e5   207 0001:000142f2
   213 0001:00014300   214 0001:00014303   216 0001:00014308   220 0001:00014317
   223 0001:0001431d   220 0001:00014325   223 0001:00014332   229 0001:00014340
   230 0001:00014343   232 0001:00014348   236 0001:00014357   239 0001:0001435d
   236 0001:00014365   239 0001:00014372    83 0001:00014380    84 0001:00014389
    88 0001:0001438f    89 0001:000143a3    95 0001:000143ab    97 0001:0001440a
    98 0001:00014411   101 0001:00014415   103 0001:0001442b   104 0001:00014432
   107 0001:00014436   112 0001:00014445   114 0001:00014454   116 0001:00014457
   118 0001:00014460   120 0001:00014462   128 0001:00014467   129 0001:0001447b

Line numbers for .\Release_Unicode\SkinHorizontalScrollbar.obj(h:\ry\\\\ d3d\memdc.h) segment .text

    25 0001:00012ec0    26 0001:00012ee5    27 0001:00012f0f    28 0001:00012f28
    29 0001:00012f52    30 0001:00012f69    31 0001:00012f6c    32 0001:00012f82
    34 0001:00013160    36 0001:00013186    37 0001:000131be    38 0001:000131d2
    39 0001:000131d9    40 0001:000131e0

Line numbers for .\Release_Unicode\SkinHorizontalScrollbar.obj(c:\program files (x86)\microsoft visual studio .net 2003\vc7\atlmfc\include\afxcmn.inl) segment .text

   182 0001:00012ea0

Line numbers for .\Release_Unicode\SkinHorizontalScrollbar.obj(c:\program files (x86)\microsoft visual studio .net 2003\vc7\atlmfc\include\afxwin2.inl) segment .text

   588 0001:00012e60

Line numbers for .\Release_Unicode\SkinHorizontalScrollbar.obj(c:\program files (x86)\microsoft visual studio .net 2003\vc7\atlmfc\include\afxwin1.inl) segment .text

   213 0001:00012d70   212 0001:00012d70   217 0001:00012da0   549 0001:00012dd0
   548 0001:00012dd0   552 0001:00012e10   554 0001:00012e10   446 0001:00012fa0
   450 0001:00012fc0   568 0001:00012fe0   573 0001:00013010   574 0001:00013010
   582 0001:00013040   581 0001:00013040   590 0001:00013090   589 0001:00013090
   600 0001:000130c0   601 0001:000130c0   660 0001:000130f0   659 0001:000130f0
   703 0001:00013130

Line numbers for .\Release_Unicode\SkinHorizontalScrollbar.obj(c:\program files (x86)\microsoft visual studio .net 2003\vc7\atlmfc\include\atltypes.inl) segment .text

   151 0001:00012d50

Line numbers for .\Release_Unicode\SkinHorizontalScrollbar.obj(h:\ry\\\\ d3d\skinhorizontalscrollbar.cpp) segment .text

    31 0001:00012d20    32 0001:00012d26    35 0001:00012d30    35 0001:00012d40
    18 0001:00013230    20 0001:00013238    22 0001:0001323e    23 0001:00013246
    24 0001:00013249    25 0001:0001324c    26 0001:0001324f    28 0001:0001325f
   336 0001:00013290   342 0001:00013296   345 0001:000132b5   347 0001:000132c1
   348 0001:000132cf   352 0001:000132f4    56 0001:00013300    57 0001:00013308
    59 0001:00013319    61 0001:00013328    65 0001:00013337    67 0001:0001336d
    69 0001:00013394    73 0001:00013398    76 0001:000133a5    79 0001:000133bc
    82 0001:000133c9    85 0001:000133e0    86 0001:000133eb   265 0001:00013400
   266 0001:0001341e   268 0001:00013428   269 0001:00013440   270 0001:00013463
   272 0001:0001347e   273 0001:00013487   275 0001:000134a4   276 0001:000134b0
   277 0001:000134da   282 0001:000134e9   287 0001:00013515   289 0001:00013520
   291 0001:00013530   297 0001:0001355f   300 0001:0001357d   308 0001:00013584
   310 0001:0001359f   312 0001:000135a8   314 0001:000135d1   315 0001:000135eb
   317 0001:000135f4   320 0001:00013660   322 0001:00013667   324 0001:00013676
   326 0001:00013691   329 0001:000136a8   331 0001:000136b6   333 0001:000136bb
    49 0001:000136c0    50 0001:000136e4    52 0001:000136ee    53 0001:000136fd
   146 0001:00013730   148 0001:00013736   150 0001:00013745   151 0001:0001374c
   153 0001:00013750   156 0001:0001375c   159 0001:00013763   160 0001:0001377b
   164 0001:00013791   168 0001:000137a8   171 0001:000137ae   173 0001:000137c6
   175 0001:000137de   177 0001:000137ef   179 0001:000137f6   182 0001:000137fe
   183 0001:00013806   229 0001:00013810   231 0001:00013816   233 0001:00013825
   234 0001:0001382f   238 0001:00013845   240 0001:00013867   241 0001:0001386b
   243 0001:00013876   245 0001:0001387a   247 0001:0001387d   249 0001:0001388e
   250 0001:00013896   253 0001:000138a0   254 0001:000138a1   255 0001:000138b9
   259 0001:000138d0   260 0001:000138d1   261 0001:000138e9   217 0001:00013900
   218 0001:00013901   219 0001:00013919   223 0001:00013930   224 0001:00013931
   225 0001:00013949    89 0001:00013960    90 0001:00013969    91 0001:0001396e
    92 0001:0001397a    98 0001:00013980   100 0001:00013994   102 0001:000139a3
   103 0001:000139a7   105 0001:000139be   107 0001:000139ea   108 0001:00013a05
   114 0001:00013a09   116 0001:00013a33   117 0001:00013a53   120 0001:00013a57
   125 0001:00013a6a   127 0001:00013a73   129 0001:00013a76   131 0001:00013a87
   133 0001:00013a89   142 0001:00013aa0   143 0001:00013ab7   187 0001:00013ac0
   186 0001:00013ac0   189 0001:00013acd   191 0001:00013ada   194 0001:00013af3
   196 0001:00013afa   213 0001:00013b13   214 0001:00013b1c   199 0001:00013b1f
   201 0001:00013b24   203 0001:00013b38   204 0001:00013b40   207 0001:00013b4c
   209 0001:00013b53   210 0001:00013b5b   213 0001:00013b68   214 0001:00013b71

Line numbers for .\Release_Unicode\SkinButtonEx.obj(c:\program files (x86)\microsoft visual studio .net 2003\vc7\atlmfc\include\atlimage.h) segment .text

   898 0001:00012ac0   895 0001:00012ac0   899 0001:00012ac3   968 0001:00012ad0
   971 0001:00012ad0   972 0001:00012ad3   989 0001:00012ae0   988 0001:00012ae0
   990 0001:00012aea

Line numbers for .\Release_Unicode\SkinButtonEx.obj(c:\program files (x86)\microsoft visual studio .net 2003\vc7\atlmfc\include\afxwin3.inl) segment .text

    29 0001:00012a70    27 0001:00012a70

Line numbers for .\Release_Unicode\SkinButtonEx.obj(c:\program files (x86)\microsoft visual studio .net 2003\vc7\atlmfc\include\afxwin1.inl) segment .text

   177 0001:000129a0   179 0001:000129b0   192 0001:000129c0   191 0001:000129c0
   316 0001:000129f0   330 0001:00012a00   361 0001:00012a40

Line numbers for .\Release_Unicode\SkinButtonEx.obj(h:\ry\\\\ d3d\skinbuttonex.cpp) segment .text

     7 0001:00012960     8 0001:0001296f    12 0001:00012980    13 0001:00012986
    19 0001:00012990    17 0001:00012990    23 0001:00012b10    26 0001:00012b3d
    29 0001:00012b4c    31 0001:00012b55    34 0001:00012b70    35 0001:00012b75
    38 0001:00012b88    39 0001:00012b98    40 0001:00012baa    43 0001:00012bc0
    44 0001:00012bda    48 0001:00012bec    51 0001:00012c04    54 0001:00012c10
    55 0001:00012c24    58 0001:00012c2a    59 0001:00012c3a    60 0001:00012c4a
    63 0001:00012c59    64 0001:00012c64    67 0001:00012c73    70 0001:00012c9a
    71 0001:00012cd9

Line numbers for .\Release_Unicode\ScoreControl.obj(h:\ry\\\\ d3d\scorecontrol.cpp) segment .text

    35 0001:00011f20    36 0001:00011f44    43 0001:00011ff0    40 0001:00011ff0
    86 0001:00012000    88 0001:00012006    91 0001:00012012    92 0001:00012030
    93 0001:00012042    94 0001:00012054    97 0001:0001206a   101 0001:00012070
   121 0001:00012070   221 0001:00012080   223 0001:00012083   229 0001:0001208e
   232 0001:0001209a   237 0001:000120a5   241 0001:000120b0   243 0001:000120b1
   246 0001:000120c2   250 0001:000120d0   251 0001:000120e6   252 0001:000120fa
   255 0001:00012121   256 0001:00012133   258 0001:0001215a   260 0001:0001216a
   262 0001:00012188   264 0001:0001218f   267 0001:000121a0   269 0001:000121c0
   271 0001:000121d0   269 0001:000121e2   271 0001:000121ea   273 0001:000121ec
   274 0001:0001221f   279 0001:0001224b    21 0001:00012270    23 0001:00012318
    24 0001:0001231e    25 0001:00012324    28 0001:0001232a    31 0001:00012336
    47 0001:00012370    49 0001:00012377    52 0001:00012396    54 0001:00012398
    55 0001:000123cc    58 0001:000123e8    59 0001:0001240a    60 0001:0001242a
    61 0001:0001244a    64 0001:0001246a    67 0001:0001247c    69 0001:00012490
    82 0001:000124a4   127 0001:000124b0   125 0001:000124b0   132 0001:000124c3
   142 0001:000124c5   149 0001:000124d2   136 0001:000124d5   137 0001:000124e0
   149 0001:00012503   153 0001:00012510   156 0001:0001251f   160 0001:00012552
   161 0001:0001255a   163 0001:00012566   169 0001:00012630   170 0001:00012640
   171 0001:00012660   172 0001:00012676   173 0001:00012678   177 0001:0001268b
   178 0001:000126a5   179 0001:000126c2   182 0001:000126f4   183 0001:00012707
   186 0001:00012724   187 0001:00012760   188 0001:00012780   189 0001:0001279e
   192 0001:000127bc   194 0001:000127dd   195 0001:00012808   199 0001:00012885
   202 0001:000128a1   204 0001:000128b9   206 0001:000128d7   209 0001:000128e0
   211 0001:00012909   214 0001:00012914   217 0001:00012943

Line numbers for .\Release_Unicode\HistoryRecord.obj(h:\ry\\\\ d3d\historyrecord.cpp) segment .text

    17 0001:00011af0    19 0001:00011af9    20 0001:00011afd    21 0001:00011b09
    22 0001:00011b12    25 0001:00011b1b    29 0001:00011b20    30 0001:00011b26
    34 0001:00011b30    36 0001:00011b32    37 0001:00011b37    38 0001:00011b43
    39 0001:00011b4c    42 0001:00011b56    49 0001:00011b60    46 0001:00011b60
    52 0001:00011b6d    51 0001:00011b70    52 0001:00011b77    59 0001:00011b80
    56 0001:00011b80    62 0001:00011b8d    61 0001:00011b90    62 0001:00011b97
    66 0001:00011ba0    69 0001:00011ba0    72 0001:00011bb5    73 0001:00011bbc
    76 0001:00011bdb    69 0001:00011bde    76 0001:00011be1    80 0001:00011bf0
    83 0001:00011bf0    86 0001:00011c05    87 0001:00011c0c    90 0001:00011c2b
    83 0001:00011c2e    90 0001:00011c31   131 0001:00011c40   128 0001:00011c40
   137 0001:00011c4d   139 0001:00011c59   140 0001:00011c5d   143 0001:00011c7e
   145 0001:00011c8a   149 0001:00011c8e   152 0001:00011c92   159 0001:00011ca0
   156 0001:00011ca0   166 0001:00011cad   168 0001:00011cba   169 0001:00011cbe
   172 0001:00011cdd   174 0001:00011ce5   179 0001:00011ce9   180 0001:00011ced
   183 0001:00011d14   189 0001:00011d20   191 0001:00011d23   194 0001:00011d35
   198 0001:00011d40   199 0001:00011d46   203 0001:00011d50   205 0001:00011d53
   208 0001:00011d60   215 0001:00011d70   212 0001:00011d70   219 0001:00011d7d
   218 0001:00011d80   219 0001:00011d8a   226 0001:00011d90   223 0001:00011d90
   229 0001:00011d9b   230 0001:00011dab   233 0001:00011db1   240 0001:00011dc0
   237 0001:00011dc0   243 0001:00011dcb   244 0001:00011ddb   247 0001:00011de1
   251 0001:00011df0   254 0001:00011df0   257 0001:00011dfb   258 0001:00011e0c
   261 0001:00011e23    97 0001:00011e50    94 0001:00011e50   100 0001:00011e64
   103 0001:00011e73   105 0001:00011e7a   106 0001:00011e80   110 0001:00011e97
   113 0001:00011e9b   114 0001:00011e9d   115 0001:00011ead   118 0001:00011ed4
   119 0001:00011eda   120 0001:00011edd   124 0001:00011ef0

Line numbers for .\Release_Unicode\GameLogic.obj(h:\ry\\\\ d3d\gamelogic.cpp) segment .text

    24 0001:0000eeb0    25 0001:0000eeb8    29 0001:0000eec0    30 0001:0000eec6
   216 0001:0000eed0   228 0001:0000eeda   231 0001:0000ef32   235 0001:0000ef50
   241 0001:0000ef53   267 0001:0000ef6b   242 0001:0000ef7b   245 0001:0000ef93
   247 0001:0000efb0   249 0001:0000efc0   252 0001:0000efd1   257 0001:0000efe7
   267 0001:0000eff1   260 0001:0000f000   261 0001:0000f002   263 0001:0000f010
   267 0001:0000f026   271 0001:0000f040   277 0001:0000f043   303 0001:0000f05b
   278 0001:0000f06b   281 0001:0000f083   283 0001:0000f0a0   285 0001:0000f0b0
   288 0001:0000f0c1   293 0001:0000f0d7   303 0001:0000f0e1   296 0001:0000f0f0
   297 0001:0000f0f2   299 0001:0000f100   303 0001:0000f116   360 0001:0000f130
   357 0001:0000f130   363 0001:0000f134   365 0001:0000f145   364 0001:0000f148
   365 0001:0000f152   443 0001:0000f160   442 0001:0000f160   444 0001:0000f171
   448 0001:0000f180   450 0001:0000f182   453 0001:0000f192   457 0001:0000f1b0
   460 0001:0000f1d5   463 0001:0000f1e0   466 0001:0000f206   470 0001:0000f20e
   471 0001:0000f219   453 0001:0000f23b   478 0001:0000f255   482 0001:0000f260
   484 0001:0000f260   487 0001:0000f273   489 0001:0000f284   496 0001:0000f28a
   497 0001:0000f293   498 0001:0000f298   502 0001:0000f2bc    34 0001:0000f2e0
    36 0001:0000f2e9    58 0001:0000f311    61 0001:0000f323    64 0001:0000f32b
   145 0001:0000f33d    65 0001:0000f34c   145 0001:0000f356    66 0001:0000f365
   145 0001:0000f37e    72 0001:0000f38d    75 0001:0000f39a    79 0001:0000f39f
    82 0001:0000f3ab   145 0001:0000f3b5    85 0001:0000f3c4    40 0001:0000f3d0
    87 0001:0000f3d3    88 0001:0000f3d7   138 0001:0000f3f7    94 0001:0000f3f9
   145 0001:0000f409    91 0001:0000f418   145 0001:0000f423    95 0001:0000f432
   145 0001:0000f443    96 0001:0000f452   145 0001:0000f46d   102 0001:0000f47c
   106 0001:0000f485   109 0001:0000f491   112 0001:0000f499    40 0001:0000f4a2
   115 0001:0000f4a5   138 0001:0000f4ca   119 0001:0000f4cc   145 0001:0000f4df
   125 0001:0000f4ee   129 0001:0000f503   132 0001:0000f50f   135 0001:0000f517
    40 0001:0000f520   138 0001:0000f523   141 0001:0000f54b   145 0001:0000f54e
    49 0001:0000f55d   145 0001:0000f573    50 0001:0000f582   145 0001:0000f5b8
    50 0001:0000f5c7   145 0001:0000f5da    44 0001:0000f5eb   145 0001:0000f5ee
   149 0001:0000f620   151 0001:0000f629   152 0001:0000f640   156 0001:0000f64e
   158 0001:0000f666   163 0001:0000f685   167 0001:0000f690   177 0001:0000f6a0
   170 0001:0000f6ba   176 0001:0000f6c3   177 0001:0000f6c9   178 0001:0000f6ce
   182 0001:0000f6da   183 0001:0000f6dd   187 0001:0000f6ef   190 0001:0000f6fd
   197 0001:0000f707   200 0001:0000f723   204 0001:0000f725   207 0001:0000f760
   212 0001:0000f778   307 0001:0000f790   309 0001:0000f799   311 0001:0000f7b1
   331 0001:0000f7c1   334 0001:0000f7cd   335 0001:0000f7e2   337 0001:0000f7f0
   338 0001:0000f7f7   339 0001:0000f816   341 0001:0000f830   343 0001:0000f835
   346 0001:0000f845   347 0001:0000f862   353 0001:0000f886   314 0001:0000f895
   315 0001:0000f8aa   317 0001:0000f8b8   318 0001:0000f8c0   319 0001:0000f8df
   321 0001:0000f8f7   323 0001:0000f8fc   326 0001:0000f908   327 0001:0000f925
   353 0001:0000f94d   369 0001:0000f960   371 0001:0000f96f   372 0001:0000f98d
   375 0001:0000f9a6   376 0001:0000f9aa   379 0001:0000f9af   380 0001:0000f9bc
   383 0001:0000f9c1   438 0001:0000f9c3   383 0001:0000f9dc   386 0001:0000f9f0
   397 0001:0000fa07   398 0001:0000fa15   401 0001:0000fa22   409 0001:0000fa2a
   410 0001:0000fa38   414 0001:0000fa4d   417 0001:0000fa6a   425 0001:0000fa75
   426 0001:0000fa83   430 0001:0000fa98   433 0001:0000fab5   438 0001:0000fac0
   897 0001:0000fae0   899 0001:0000faec   900 0001:0000fb00   906 0001:0000fb0a
   909 0001:0000fb2b   912 0001:0000fb41   913 0001:0000fb43   915 0001:0000fb68
   916 0001:0000fb93   938 0001:0000fba0   921 0001:0000fbd2   922 0001:0000fbda
   924 0001:0000fc05   930 0001:0000fc0d   931 0001:0000fc31   933 0001:0000fc3f
   919 0001:0000fc61   937 0001:0000fc65   938 0001:0000fc67   940 0001:0000fc74
   941 0001:0000fc78   942 0001:0000fc7f   943 0001:0000fc87   948 0001:0000fcb0
   950 0001:0000fcbe   951 0001:0000fcd2   957 0001:0000fcdc   958 0001:0000fcf0
   959 0001:0000fcf2   960 0001:0000fd05  1036 0001:0000fd08   964 0001:0000fd1d
   965 0001:0000fd54   970 0001:0000fd5b   973 0001:0000fd6d   977 0001:0000fd83
   979 0001:0000fdb9   983 0001:0000fdc5   986 0001:0000fdde   987 0001:0000fde9
   990 0001:0000fdf8   994 0001:0000fe20   996 0001:0000fe30   999 0001:0000fe66
  1003 0001:0000fe70  1009 0001:0000fe8a  1035 0001:0000fe9b   996 0001:0000feca
   994 0001:0000fee4  1014 0001:0000fef5  1018 0001:0000ff00  1019 0001:0000ff2c
  1020 0001:0000ff30  1033 0001:0000ff4a  1034 0001:0000ff55  1035 0001:0000ff5b
  1036 0001:0000ff5f  1014 0001:0000ff78  1041 0001:0000ff80  1043 0001:0000ff8e
  1044 0001:0000ffa2  1049 0001:0000ffac  1051 0001:0000ffb5  1052 0001:0000ffc8
  1053 0001:0000ffcd  1057 0001:0000ffd7  1060 0001:0000ffdb  1063 0001:0000ffeb
  1066 0001:0001000b  1194 0001:00010025  1069 0001:0001003a  1074 0001:00010056
  1077 0001:0001006b  1081 0001:00010084  1085 0001:000100b0  1088 0001:000100d0
  1090 0001:000100dc  1093 0001:000100e0  1095 0001:000100e6  1097 0001:000100ec
  1101 0001:000100ee  1104 0001:00010103  1106 0001:0001010d  1112 0001:00010115
  1115 0001:00010132  1193 0001:00010146  1123 0001:000101ba  1112 0001:000101cd
  1128 0001:000101e7  1129 0001:000101fe  1131 0001:00010202  1133 0001:00010217
  1135 0001:0001021d  1137 0001:0001021f  1143 0001:00010237  1146 0001:00010250
  1148 0001:00010260  1155 0001:00010268  1158 0001:00010280  1193 0001:00010290
  1160 0001:000102f4  1166 0001:000102f8  1155 0001:0001030c  1170 0001:00010325
  1173 0001:0001032b  1193 0001:00010336  1175 0001:00010394  1181 0001:00010398
  1186 0001:000103a9  1187 0001:000103b4  1106 0001:000103b8  1187 0001:000103bc
  1191 0001:000103c0  1192 0001:000103c4  1194 0001:000103c6  1198 0001:000103e0
  1200 0001:000103f2  1201 0001:00010408  1204 0001:00010414  1205 0001:00010425
  1206 0001:00010436  1210 0001:00010446  1212 0001:00010464  1215 0001:00010470
  1222 0001:00010490  1225 0001:000104c3  1226 0001:000104f2  1228 0001:00010536
  1236 0001:00010552  1237 0001:00010576  1240 0001:00010589  1243 0001:00010591
  1245 0001:00010598  1246 0001:000105d7  1252 0001:000105da  1254 0001:00010603
  1256 0001:00010622  1260 0001:00010657  1263 0001:00010672  1264 0001:000106b4
  1266 0001:000106e4  1274 0001:0001070a  1275 0001:0001071f  1280 0001:00010728
  1281 0001:00010763  1286 0001:00010770  1291 0001:0001079d  1292 0001:000107d1
  1294 0001:000107e0  1296 0001:000107ef  1306 0001:000107ff  1310 0001:00010820
  1355 0001:0001082f  1306 0001:00010857  1320 0001:0001085b  1240 0001:00010879
  1355 0001:0001087b  1337 0001:00010948  1339 0001:00010970  1342 0001:00010978
  1343 0001:0001099d  1345 0001:000109be  1347 0001:000109e6  1350 0001:000109ee
  1351 0001:00010a13  1355 0001:00010a34  1356 0001:00010a3a  1240 0001:00010a4f
  1356 0001:00010a51   507 0001:00010a80   510 0001:00010a99   892 0001:00010aaa
   512 0001:00010abf   521 0001:00010ac4   524 0001:00010af5   527 0001:00010b10
   530 0001:00010b23   539 0001:00010b3d   541 0001:00010b51   543 0001:00010b57
   544 0001:00010b73   549 0001:00010b78   552 0001:00010b9a   553 0001:00010bae
   554 0001:00010bb0   556 0001:00010bc2   558 0001:00010bd3   554 0001:00010bee
   563 0001:00010bf2   564 0001:00010bfd   569 0001:00010c03   571 0001:00010c0b
   572 0001:00010c27   574 0001:00010c2b   576 0001:00010c39   577 0001:00010c60
   582 0001:00010c68   584 0001:00010c6f   585 0001:00010c8b   587 0001:00010c8f
   589 0001:00010c9d   590 0001:00010cc4   595 0001:00010ccc   597 0001:00010cd3
   598 0001:00010cef   600 0001:00010cf3   602 0001:00010d01   603 0001:00010d28
   608 0001:00010d30   891 0001:00010e3a   608 0001:00010e5a   609 0001:00010eda
   611 0001:00010ee5   613 0001:00010efa   614 0001:00010f17   618 0001:00010f1f
   891 0001:0001102c   618 0001:0001104f   619 0001:000110cf   621 0001:000110d1
   623 0001:000110ef   624 0001:0001110e   628 0001:00011116   629 0001:00011136
   631 0001:0001113a   633 0001:0001114b   634 0001:0001116a   638 0001:0001116c
   639 0001:0001118c   641 0001:00011190   643 0001:000111a1   644 0001:000111c0
   648 0001:000111c2   649 0001:000111e2   651 0001:000111e6   653 0001:000111f7
   654 0001:00011216   668 0001:00011218   670 0001:0001121f   671 0001:0001123d
   673 0001:00011241   675 0001:00011252   676 0001:00011271   681 0001:00011273
   684 0001:0001128a   685 0001:00011295   688 0001:0001129b   691 0001:000112a4
   692 0001:000112a6   892 0001:000112a8   688 0001:000112bd   691 0001:000112c0
   692 0001:000112c2   892 0001:000112c4   701 0001:000112d9   702 0001:000112f0
   705 0001:000112fa   707 0001:00011318   715 0001:0001131d   716 0001:0001132e
   721 0001:0001133b   723 0001:00011364   729 0001:00011369   732 0001:00011375
   743 0001:00011385   744 0001:0001139c   748 0001:000113a1   749 0001:000113d8
   750 0001:000113e8   754 0001:00011408   756 0001:00011441   763 0001:00011449
   765 0001:00011463   769 0001:000114a1   770 0001:000114a3   773 0001:000114d1
   775 0001:000114e7   777 0001:00011500   779 0001:00011513   789 0001:0001152c
   793 0001:00011550   891 0001:0001155f   789 0001:000115a2   803 0001:000115a6
   737 0001:000115c4   891 0001:000115c6   819 0001:0001163d   824 0001:00011660
   826 0001:0001166c   827 0001:0001166f   828 0001:00011671   830 0001:00011688
   832 0001:0001168e   834 0001:00011698   835 0001:000116b0   838 0001:000116d1
   839 0001:000116d8   734 0001:000116ec   737 0001:000116f0   891 0001:00011868
   737 0001:000118a5   843 0001:0001192e   850 0001:00011930   851 0001:00011946
   852 0001:0001195c   855 0001:0001196f   862 0001:00011997   866 0001:000119af
   869 0001:000119c1   870 0001:000119df   872 0001:00011a10   874 0001:00011a16
   875 0001:00011a45   870 0001:00011a5a   880 0001:00011a63   883 0001:00011a81
   884 0001:00011a89   887 0001:00011a8f   890 0001:00011a98   892 0001:00011a9a
   887 0001:00011aaf   892 0001:00011ab6

Line numbers for .\Release_Unicode\GameLogic.obj(h:\ry\\\\ d3d\gamelogic.h) segment .text

    69 0001:0000eea0

Line numbers for .\Release_Unicode\GameFrameWindow.obj(c:\program files (x86)\microsoft visual studio .net 2003\vc7\atlmfc\include\afxwin2.inl) segment .text

    81 0001:0000e110   410 0001:0000e120   426 0001:0000e130   464 0001:0000e140

Line numbers for .\Release_Unicode\GameFrameWindow.obj(c:\program files (x86)\microsoft visual studio .net 2003\vc7\atlmfc\include\afxwin1.inl) segment .text

    29 0001:0000e090    78 0001:0000e0a0   366 0001:0000e0b0   365 0001:0000e0b0
   596 0001:0000e0d0   592 0001:0000e0d0

Line numbers for .\Release_Unicode\GameFrameWindow.obj(h:\ry\\\\ d3d\gameframewindow.h) segment .text

    52 0001:0000df80

Line numbers for .\Release_Unicode\GameFrameWindow.obj(h:\ry\\\\ d3d\gameframewindow.cpp) segment .text

    37 0001:0000de60    37 0001:0000de70    77 0001:0000de90    78 0001:0000dec7
    91 0001:0000df90    92 0001:0000df90   217 0001:0000dfa0   214 0001:0000dfa0
   226 0001:0000dfa6   232 0001:0000dfb0   230 0001:0000dfb0   236 0001:0000dfc0
   239 0001:0000dfc0   245 0001:0000dfd0   243 0001:0000dfd0   252 0001:0000dfe0
   249 0001:0000dfe0   256 0001:0000dff0   258 0001:0000dff0   263 0001:0000e000
   262 0001:0000e000   264 0001:0000e005   375 0001:0000e010   374 0001:0000e010
   393 0001:0000e020   394 0001:0000e020   395 0001:0000e022   400 0001:0000e030
   399 0001:0000e030   401 0001:0000e032   404 0001:0000e040   405 0001:0000e040
   406 0001:0000e042   411 0001:0000e050   410 0001:0000e050   412 0001:0000e052
   416 0001:0000e060   417 0001:0000e060   418 0001:0000e062   423 0001:0000e070
   422 0001:0000e070   424 0001:0000e072    82 0001:0000e190    83 0001:0000e190
    87 0001:0000e1dc    84 0001:0000e1e0    85 0001:0000e20a    87 0001:0000e242
    86 0001:0000e247    87 0001:0000e24a    97 0001:0000e250   102 0001:0000e271
   106 0001:0000e299   107 0001:0000e2a5   109 0001:0000e2ab   111 0001:0000e2b0
   109 0001:0000e2ba   111 0001:0000e2c1   115 0001:0000e2cb   116 0001:0000e2db
   121 0001:0000e2e5   122 0001:0000e2eb   123 0001:0000e2ff   124 0001:0000e30a
   126 0001:0000e319   131 0001:0000e323   132 0001:0000e329   134 0001:0000e33d
   136 0001:0000e367   141 0001:0000e371   142 0001:0000e377   143 0001:0000e38d
   144 0001:0000e398   146 0001:0000e3a7   147 0001:0000e3b8   149 0001:0000e3e2
   154 0001:0000e3ec   155 0001:0000e3f6   159 0001:0000e413   162 0001:0000e419
   163 0001:0000e42f   164 0001:0000e43a   167 0001:0000e448   170 0001:0000e45d
   171 0001:0000e46d   175 0001:0000e4b0   177 0001:0000e4b0   180 0001:0000e4d1
   184 0001:0000e4db   185 0001:0000e4e1   188 0001:0000e4f5   191 0001:0000e501
   192 0001:0000e50d   193 0001:0000e526   194 0001:0000e53c   195 0001:0000e552
   198 0001:0000e576   201 0001:0000e596   202 0001:0000e5bc   203 0001:0000e5de
   204 0001:0000e600   207 0001:0000e627   210 0001:0000e632   268 0001:0000e640
   269 0001:0000e640   272 0001:0000e659   275 0001:0000e665   281 0001:0000e670
   280 0001:0000e670   353 0001:0000e688   284 0001:0000e691   285 0001:0000e6a1
   286 0001:0000e6b3   290 0001:0000e6c1   293 0001:0000e6c7   294 0001:0000e6e3
   295 0001:0000e6f9   296 0001:0000e70f   298 0001:0000e728   299 0001:0000e741
   302 0001:0000e751   303 0001:0000e765   304 0001:0000e77c   307 0001:0000e789
   311 0001:0000e7b4   319 0001:0000e7c4   320 0001:0000e7e0   323 0001:0000e7ee
   324 0001:0000e7f3   325 0001:0000e808   327 0001:0000e80b   331 0001:0000e820
   335 0001:0000e835   339 0001:0000e84f   340 0001:0000e885   341 0001:0000e8ab
   342 0001:0000e8d1   344 0001:0000e8f5   345 0001:0000e921   346 0001:0000e937
   347 0001:0000e94d   350 0001:0000e967   352 0001:0000e983   353 0001:0000e986
   357 0001:0000e990   358 0001:0000e993   360 0001:0000e998   361 0001:0000e9a1
   364 0001:0000e9c1   369 0001:0000e9d0   368 0001:0000e9d0   370 0001:0000e9d5
   381 0001:0000e9e0   383 0001:0000e9e0   386 0001:0000e9fa   388 0001:0000ea0a
   389 0001:0000ea0e   428 0001:0000ea20   429 0001:0000ea20   432 0001:0000ea2a
   435 0001:0000ea4d   444 0001:0000ea53   445 0001:0000ea68   446 0001:0000ea7d
   450 0001:0000ea80   453 0001:0000eaa5   460 0001:0000eab0   457 0001:0000eab0
   461 0001:0000eab5   463 0001:0000eaba   467 0001:0000eac0   470 0001:0000eac0
   474 0001:0000ead0   475 0001:0000eaf6   479 0001:0000eb07   481 0001:0000eb2b
   483 0001:0000eb35   486 0001:0000eb6d   489 0001:0000eb70   490 0001:0000ebba
   491 0001:0000ebc8   498 0001:0000ebf0   504 0001:0000ebf8   508 0001:0000ec59
   509 0001:0000ec67   512 0001:0000ec97    57 0001:0000ecf0    59 0001:0000ede0
    60 0001:0000ede6    61 0001:0000edec    64 0001:0000edf2    65 0001:0000edf8
    67 0001:0000ee5e    68 0001:0000ee68    73 0001:0000ee6c

Line numbers for .\Release_Unicode\GameFrameWindow.obj(c:\program files (x86)\microsoft visual studio .net 2003\vc7\platformsdk\include\guiddef.h) segment .text

   160 0001:0000de20   161 0001:0000de21   162 0001:0000de38   193 0001:0000de40
   194 0001:0000de41   195 0001:0000de58

Line numbers for .\Release_Unicode\GameClientView.obj(h:\ry\\\include\rightdefine.h) segment .text

    76 0001:00008080

Line numbers for .\Release_Unicode\GameClientView.obj(h:\ry\\\include\serverrule.h) segment .text

    52 0001:00008070

Line numbers for .\Release_Unicode\GameClientView.obj(c:\program files (x86)\microsoft visual studio .net 2003\vc7\atlmfc\include\afxcmn.inl) segment .text

   680 0001:00008030   735 0001:00008050

Line numbers for .\Release_Unicode\GameClientView.obj(c:\program files (x86)\microsoft visual studio .net 2003\vc7\atlmfc\include\afxwin2.inl) segment .text

    21 0001:00007f10    27 0001:00007f20   115 0001:00007f30   199 0001:00007f50
   388 0001:00007f70   462 0001:00007f80   466 0001:00007f90   476 0001:00007fa0
   813 0001:00007fb0   846 0001:00007ff0   901 0001:00008010

Line numbers for .\Release_Unicode\GameClientView.obj(c:\program files (x86)\microsoft visual studio .net 2003\vc7\atlmfc\include\afxwin1.inl) segment .text

   124 0001:00007ec0   128 0001:00007ed0   130 0001:00007ee0   132 0001:00007ef0

Line numbers for .\Release_Unicode\GameClientView.obj(c:\program files (x86)\microsoft visual studio .net 2003\vc7\atlmfc\include\cstringt.h) segment .text

  2082 0001:00007ea0  2081 0001:00007ea0  2083 0001:00007eba

Line numbers for .\Release_Unicode\GameClientView.obj(c:\program files (x86)\microsoft visual studio .net 2003\vc7\atlmfc\include\atltypes.inl) segment .text

   116 0001:00007730   143 0001:00007a30   153 0001:00007a40

Line numbers for .\Release_Unicode\GameClientView.obj(h:\ry\\\\ d3d\gameclientview.cpp) segment .text

    79 0001:000076e0    79 0001:000076f0   903 0001:00007700   902 0001:00007700
   906 0001:0000770c   912 0001:00007710   910 0001:00007710   915 0001:0000772d
  1596 0001:00007750  1598 0001:00007756  1599 0001:00007763  1601 0001:00007787
  1603 0001:00007794  1605 0001:000077b2  1607 0001:000077b9  1610 0001:000077c7
  1612 0001:000077e0  1614 0001:000077f0  1612 0001:00007803  1614 0001:0000780b
  1616 0001:0000780d  1617 0001:00007834  1622 0001:0000785d  1626 0001:00007870
  1628 0001:00007873  1634 0001:00007895  1635 0001:000078ad  1636 0001:000078dd
  1639 0001:000078fe  1641 0001:00007914  1642 0001:00007949  1645 0001:00007965
  1646 0001:00007992  1649 0001:000079c9  1651 0001:000079d5  1652 0001:000079fb
  1656 0001:00007a20  2155 0001:00007a60  2153 0001:00007a60  2158 0001:00007a6f
  2189 0001:00007a70  2187 0001:00007a70  2192 0001:00007a7f  2196 0001:00007a80
  2198 0001:00007a80  2201 0001:00007a8f  2207 0001:00007a90  2205 0001:00007a90
  2210 0001:00007a9f  2229 0001:00007aa0  2214 0001:00007aa0  2260 0001:00007ab0
  2258 0001:00007ab0  2278 0001:00007ac0  2280 0001:00007ac0  2283 0001:00007acf
  2289 0001:00007ad0  2287 0001:00007ad0  2292 0001:00007adf  2298 0001:00007ae0
  2296 0001:00007ae0  2301 0001:00007aef  2305 0001:00007af0  2307 0001:00007af0
  2310 0001:00007aff  2316 0001:00007b00  2314 0001:00007b00  2319 0001:00007b0f
  2325 0001:00007b10  2323 0001:00007b10  2328 0001:00007b1f  2332 0001:00007b20
  2334 0001:00007b20  2337 0001:00007b2f  2343 0001:00007b30  2341 0001:00007b30
  2346 0001:00007b45  2351 0001:00007b50  2350 0001:00007b50  2354 0001:00007b6a
  2356 0001:00007b74  2360 0001:00007b86  2703 0001:00007b90  2706 0001:00007b93
  2708 0001:00007ba1  2710 0001:00007bb2  2715 0001:00007bbb  2720 0001:00007be5
  2721 0001:00007c0f  2724 0001:00007c16  2726 0001:00007c19  2727 0001:00007c50
  2730 0001:00007c58  2737 0001:00007c62  2740 0001:00007c8e  2736 0001:00007c91
  2737 0001:00007c98  2740 0001:00007ca9  2769 0001:00007cb0  2770 0001:00007cb0
  2772 0001:00007cc9  2908 0001:00007cd0  2911 0001:00007cd4  2912 0001:00007ce7
  2914 0001:00007cf7  2916 0001:00007d20  3029 0001:00007d30  3030 0001:00007d4a
  3031 0001:00007d5c  3032 0001:00007d6e  3033 0001:00007d72  3034 0001:00007d87
  3036 0001:00007d91  3039 0001:00007da6  3041 0001:00007db7  3043 0001:00007dc9
  3044 0001:00007dd6  3046 0001:00007dd8  3048 0001:00007dda  3049 0001:00007df2
  3050 0001:00007df3  3039 0001:00007df4  3054 0001:00007df8  3055 0001:00007e07
  3057 0001:00007e15  3058 0001:00007e2b  3060 0001:00007e39  3061 0001:00007e5e
  3063 0001:00007e80  3064 0001:00007e83  3066 0001:00007e8f   122 0001:00008090
   124 0001:00008558   126 0001:0000855e   127 0001:00008564   128 0001:0000856a
   129 0001:00008571   130 0001:00008577   131 0001:0000857e   134 0001:00008585
   135 0001:0000858b   138 0001:00008592   139 0001:00008598   142 0001:0000859f
   143 0001:000085a5   146 0001:000085ac   147 0001:000085b2   150 0001:000085b9
   153 0001:000085c0   154 0001:000085c6   157 0001:000085cd   158 0001:000085d3
   159 0001:000085d9   162 0001:000085e0   163 0001:000085e6   164 0001:000085ec
   170 0001:000085f2   171 0001:000085f8   172 0001:000085fe   173 0001:0000862c
   176 0001:00008638   177 0001:0000863f   180 0001:00008650   197 0001:00008667
   201 0001:00008726   209 0001:00008736   213 0001:00008770   216 0001:000087a5
   220 0001:00008c30   222 0001:00008c34   224 0001:00008c40   227 0001:00008c47
   228 0001:00008c4d   231 0001:00008c54   232 0001:00008c5a   235 0001:00008c61
   236 0001:00008c67   239 0001:00008c6e   242 0001:00008c75   243 0001:00008c7b
   246 0001:00008c82   247 0001:00008c88   248 0001:00008c8e   251 0001:00008c95
   252 0001:00008c9b   253 0001:00008ca1   259 0001:00008ca7   260 0001:00008cad
   261 0001:00008cc7   262 0001:00008ce1   265 0001:00008ced   266 0001:00008cf5
   273 0001:00008d00   281 0001:00008d1b   282 0001:00008d72   283 0001:00008d7b
   284 0001:00008d84   285 0001:00008d8d   288 0001:00008d96   289 0001:00008da2
   290 0001:00008dab   291 0001:00008db6   292 0001:00008dbf   295 0001:00008dcc
   296 0001:00008dd5   297 0001:00008dde   298 0001:00008de7   301 0001:00008df0
   302 0001:00008dfb   303 0001:00008e08   308 0001:00008e20   309 0001:00008e2d
   312 0001:00008e36   313 0001:00008e49   317 0001:00008e58   318 0001:00008e76
   319 0001:00008e88   320 0001:00008e9a   321 0001:00008eac   322 0001:00008ebe
   323 0001:00008ed0   324 0001:00008ee2   325 0001:00008ef4   326 0001:00008f06
   329 0001:00008f18   330 0001:00008f20   331 0001:00008f3e   334 0001:00008f54
   338 0001:00008f60   342 0001:00008f64   345 0001:00008fbb   346 0001:00008fd9
   347 0001:00008fec   350 0001:0000900a   351 0001:0000902f   352 0001:00009036
   355 0001:00009066   356 0001:00009098   357 0001:000090aa   360 0001:000090d0
   361 0001:000090e4   362 0001:000090f6   365 0001:00009100   366 0001:00009119
   367 0001:0000912f   370 0001:0000913f   371 0001:00009154   372 0001:0000916a
   375 0001:0000917c   376 0001:00009195   377 0001:000091aa   380 0001:000091b9
   381 0001:000091db   385 0001:000091f0   386 0001:00009215   387 0001:00009225
   390 0001:0000923f   393 0001:00009251   394 0001:00009271   395 0001:00009285
   397 0001:000092a7   398 0001:000092c0   399 0001:000092d4   402 0001:000092ef
   403 0001:0000930d   404 0001:00009327   407 0001:00009342   408 0001:00009357
   409 0001:0000936d   412 0001:0000937f   413 0001:00009394   414 0001:000093a7
   417 0001:000093b9   421 0001:000093c6   422 0001:000093d7   426 0001:000093fa
   427 0001:0000940b   431 0001:0000943f   432 0001:00009450   433 0001:00009489
   434 0001:000094bf   437 0001:000094f7   438 0001:00009508   439 0001:00009532
   443 0001:0000954f   444 0001:00009560   445 0001:00009593   446 0001:000095c8
   447 0001:000095ee   451 0001:00009623   452 0001:00009634   453 0001:0000964b
   454 0001:00009662   455 0001:00009679   456 0001:00009690   460 0001:000096a9
   464 0001:000096bf   467 0001:000096cf   468 0001:000096e0   471 0001:0000971f
   472 0001:00009729   473 0001:00009757   475 0001:0000978a   480 0001:00009795
   484 0001:000097a0   486 0001:000097b2   488 0001:000097c0   489 0001:000097cb
   493 0001:000097db   499 0001:000097f8   502 0001:00009808   512 0001:00009817
   517 0001:00009857   521 0001:00009876   524 0001:0000988d   525 0001:00009897
   528 0001:0000989e   532 0001:000098aa   538 0001:000098ba   539 0001:000098dc
   540 0001:000098f2   546 0001:00009908   549 0001:0000991f   552 0001:00009926
   560 0001:00009930   565 0001:00009956   568 0001:0000996d   571 0001:00009974
   579 0001:0000997e   581 0001:000099aa   582 0001:000099b4   588 0001:000099be
   591 0001:000099d8   594 0001:000099df   601 0001:000099e9   605 0001:00009a06
   608 0001:00009a1c   613 0001:00009a2d   616 0001:00009a49   620 0001:00009a64
   623 0001:00009a7b   626 0001:00009a82   629 0001:00009a8c   630 0001:00009a93
   631 0001:00009a9a   634 0001:00009aa3   639 0001:00009ab9   642 0001:00009ad8
   648 0001:00009ae6   652 0001:00009b09   655 0001:00009b22   673 0001:00009b36
   694 0001:00009b48   659 0001:00009b56   663 0001:00009b6a   664 0001:00009b89
   667 0001:00009ba0   668 0001:00009bb1   678 0001:00009bc8   686 0001:00009bd2
   689 0001:00009bf8   694 0001:00009c09   696 0001:00009c20   699 0001:00009c36
   694 0001:00009c49   704 0001:00009c53   708 0001:00009c70   710 0001:00009c91
   711 0001:00009cac   714 0001:00009cb4   715 0001:00009cd2   716 0001:00009ce6
   717 0001:00009cfd   718 0001:00009d14   719 0001:00009d2b   720 0001:00009d42
   721 0001:00009d59   724 0001:00009d73   725 0001:00009d8a   726 0001:00009da1
   727 0001:00009db8   730 0001:00009dcf   731 0001:00009de9   732 0001:00009e03
   733 0001:00009e1d   734 0001:00009e37   735 0001:00009e51   738 0001:00009e5f
   739 0001:00009e80   740 0001:00009e94   741 0001:00009ea8   742 0001:00009ebc
   743 0001:00009ed0   744 0001:00009ee4   745 0001:00009ef8   749 0001:00009f0c
   750 0001:00009f20   751 0001:00009f34   752 0001:00009f48   753 0001:00009f5c
   756 0001:00009f70   757 0001:00009f84   758 0001:00009f98   759 0001:00009fac
   762 0001:00009fc0   763 0001:00009fe2   764 0001:0000a006   765 0001:0000a01d
   766 0001:0000a033   767 0001:0000a04c   768 0001:0000a060   771 0001:0000a076
   774 0001:0000a07c   775 0001:0000a090   779 0001:0000a0b7   781 0001:0000a0c4
   782 0001:0000a0dc   783 0001:0000a0f7   784 0001:0000a105   787 0001:0000a121
   790 0001:0000a133   793 0001:0000a139   794 0001:0000a156   795 0001:0000a16a
   796 0001:0000a17e   798 0001:0000a192   799 0001:0000a1a6   800 0001:0000a1ba
   803 0001:0000a1ce   804 0001:0000a1e2   805 0001:0000a1fa   806 0001:0000a212
   807 0001:0000a22a   808 0001:0000a23e   810 0001:0000a252   811 0001:0000a266
   814 0001:0000a27a   817 0001:0000a293   818 0001:0000a2a7   819 0001:0000a2bb
   820 0001:0000a2cf   827 0001:0000a2e3   828 0001:0000a307   831 0001:0000a314
   834 0001:0000a318   838 0001:0000a31d   840 0001:0000a33e   844 0001:0000a350
   846 0001:0000a371   847 0001:0000a382   849 0001:0000a389   853 0001:0000a394
   855 0001:0000a3b5   859 0001:0000a3c7   861 0001:0000a3e8   862 0001:0000a3f9
   866 0001:0000a400   870 0001:0000a408   873 0001:0000a429   877 0001:0000a448
   879 0001:0000a45e   881 0001:0000a46a   890 0001:0000a485   895 0001:0000a4cb
   897 0001:0000a4d3   898 0001:0000a4ef   919 0001:0000a520   925 0001:0000a546
   928 0001:0000a563   929 0001:0000a57c   930 0001:0000a58b   933 0001:0000a5aa
   935 0001:0000a5b5   937 0001:0000a5d0   941 0001:0000a5db   944 0001:0000a5ef
   952 0001:0000a622   954 0001:0000a659   955 0001:0000a674   959 0001:0000a6a2
   960 0001:0000a6c0   961 0001:0000a6ce   963 0001:0000a6d1   965 0001:0000a6fa
   967 0001:0000a6fc   971 0001:0000a728   973 0001:0000a72e   974 0001:0000a751
   975 0001:0000a764   977 0001:0000a778   979 0001:0000a77a   980 0001:0000a78d
   984 0001:0000a7a6   988 0001:0000a7b2   991 0001:0000a7b4   992 0001:0000a7c0
   995 0001:0000a7cc   996 0001:0000a7d4   997 0001:0000a7ec   998 0001:0000a7ee
  1000 0001:0000a80d  1001 0001:0000a817  1006 0001:0000a83e  1008 0001:0000a844
  1009 0001:0000a865  1011 0001:0000a886  1013 0001:0000a88b  1015 0001:0000a893
  1016 0001:0000a8bb  1018 0001:0000a8d2  1020 0001:0000a8d4  1021 0001:0000a920
  1027 0001:0000a94d  1028 0001:0000a956  1031 0001:0000a98f  1032 0001:0000a9ab
  1033 0001:0000a9cd  1034 0001:0000a9e7  1036 0001:0000aa35  1039 0001:0000aa3e
  1043 0001:0000aa56  1046 0001:0000aa7b  1052 0001:0000aab3  1053 0001:0000aac0
  1054 0001:0000aadd  1057 0001:0000aafd  1059 0001:0000ab10  1061 0001:0000ab1d
  1065 0001:0000ab25  1067 0001:0000ab2d  1071 0001:0000ab4f  1073 0001:0000ab60
  1076 0001:0000ab6a  1080 0001:0000ab7c  1082 0001:0000ab89  1083 0001:0000ab92
  1084 0001:0000abbd  1085 0001:0000abbf  1086 0001:0000abf1  1092 0001:0000ac36
  1094 0001:0000ac60  1098 0001:0000ac84  1099 0001:0000ac92  1100 0001:0000ac9a
  1102 0001:0000aca2  1103 0001:0000acf3  1104 0001:0000ad1e  1108 0001:0000ad22
  1110 0001:0000ad24  1111 0001:0000ad66  1112 0001:0000ad91  1119 0001:0000ade2
  1120 0001:0000adec  1122 0001:0000ae15  1125 0001:0000ae1e  1128 0001:0000ae30
  1131 0001:0000ae38  1132 0001:0000ae42  1135 0001:0000ae46  1136 0001:0000ae4d
  1140 0001:0000ae6c  1142 0001:0000ae84  1145 0001:0000ae8d  1146 0001:0000aea9
  1151 0001:0000aee5  1153 0001:0000af01  1157 0001:0000af0a  1160 0001:0000af28
  1162 0001:0000af42  1167 0001:0000af94  1170 0001:0000af9d  1171 0001:0000afb7
  1175 0001:0000afe1  1178 0001:0000afea  1179 0001:0000b004  1183 0001:0000b030
  1187 0001:0000b039  1191 0001:0000b05c  1195 0001:0000b09c  1199 0001:0000b0a9
  1200 0001:0000b0c3  1201 0001:0000b0e1  1204 0001:0000b108  1205 0001:0000b140
  1208 0001:0000b172  1210 0001:0000b17f  1214 0001:0000b1c3  1218 0001:0000b1d0
  1221 0001:0000b1f6  1224 0001:0000b211  1228 0001:0000b246  1232 0001:0000b253
  1237 0001:0000b27b  1238 0001:0000b2d9  1240 0001:0000b2e0  1244 0001:0000b313
  1248 0001:0000b31c  1254 0001:0000b350  1259 0001:0000b381  1261 0001:0000b38e
  1265 0001:0000b39c  1269 0001:0000b3ad  1272 0001:0000b3c6  1273 0001:0000b3dd
  1272 0001:0000b417  1279 0001:0000b420  1282 0001:0000b450  1286 0001:0000b455
  1290 0001:0000b483  1295 0001:0000b4d2  1303 0001:0000b4df  1307 0001:0000b4f0
  1310 0001:0000b507  1311 0001:0000b511  1316 0001:0000b545  1317 0001:0000b554
  1321 0001:0000b577  1323 0001:0000b590  1326 0001:0000b59b  1331 0001:0000b5d3
  1333 0001:0000b5f2  1336 0001:0000b60f  1337 0001:0000b622  1340 0001:0000b634
  1341 0001:0000b64e  1344 0001:0000b665  1345 0001:0000b678  1348 0001:0000b697
  1349 0001:0000b6c5  1353 0001:0000b6ee  1355 0001:0000b702  1356 0001:0000b722
  1363 0001:0000b72a  1364 0001:0000b733  1358 0001:0000b735  1359 0001:0000b747
  1367 0001:0000b74e  1373 0001:0000b79f  1375 0001:0000b7c1  1379 0001:0000b7ce
  1381 0001:0000b7e0  1384 0001:0000b81b  1386 0001:0000b845  1388 0001:0000b86c
  1390 0001:0000b893  1393 0001:0000b89d  1395 0001:0000b8c7  1403 0001:0000b917
  1407 0001:0000b924  1410 0001:0000b93a  1417 0001:0000b958  1420 0001:0000b970
  1421 0001:0000b97e  1424 0001:0000b998  1425 0001:0000b9ad  1426 0001:0000b9b1
  1429 0001:0000b9d3  1430 0001:0000b9dd  1431 0001:0000ba6f  1432 0001:0000ba8b
  1437 0001:0000baae  1438 0001:0000baba  1439 0001:0000baeb  1440 0001:0000bb37
  1445 0001:0000bba9  1450 0001:0000bbd0  1449 0001:0000bbd0  1457 0001:0000bbe2
  1458 0001:0000bbf7  1462 0001:0000bc1a  1466 0001:0000bc20  1467 0001:0000bc20
  1474 0001:0000bc32  1475 0001:0000bc47  1479 0001:0000bc6a  1484 0001:0000bc70
  1483 0001:0000bc70  1491 0001:0000bc84  1492 0001:0000bc9a  1496 0001:0000bcbd
  1500 0001:0000bcd0  1501 0001:0000bcd0  1508 0001:0000bce2  1509 0001:0000bcf7
  1513 0001:0000bd1a  1517 0001:0000bd20  1523 0001:0000bd27  1526 0001:0000bd43
  1527 0001:0000bd52  1531 0001:0000bd60  1535 0001:0000bd94  1536 0001:0000bda3
  1539 0001:0000bdc7  1544 0001:0000bdd0  1543 0001:0000bdd0  1545 0001:0000bdd7
  1548 0001:0000bdea  1550 0001:0000bdfd  1553 0001:0000be0a  1557 0001:0000be1a
  1560 0001:0000be29  1561 0001:0000be2b  1565 0001:0000be5a  1566 0001:0000be67
  1573 0001:0000beba  1570 0001:0000bec0  1573 0001:0000bece  1579 0001:0000bee0
  1580 0001:0000befc  1581 0001:0000bf10  1582 0001:0000bf2f  1583 0001:0000bf56
  1587 0001:0000bf70  1588 0001:0000bf9d  1589 0001:0000bfb6  1590 0001:0000bfd3
  1591 0001:0000c012  1661 0001:0000c050  1660 0001:0000c050  1665 0001:0000c064
  1668 0001:0000c066  1671 0001:0000c080  1673 0001:0000c092  1678 0001:0000c0b4
  1681 0001:0000c0c3  1684 0001:0000c0de  1686 0001:0000c0ec  1689 0001:0000c0ee
  1692 0001:0000c0f7  1693 0001:0000c0ff  1700 0001:0000c106  1704 0001:0000c12c
  1705 0001:0000c13b  1710 0001:0000c15e  1714 0001:0000c170  1715 0001:0000c170
  1726 0001:0000c183  1728 0001:0000c1a5  1732 0001:0000c1c7  1736 0001:0000c1d3
  1737 0001:0000c1e2  1760 0001:0000c206  1742 0001:0000c20c  1750 0001:0000c215
  1754 0001:0000c23f  1755 0001:0000c24e  1760 0001:0000c272  1765 0001:0000c280
  1764 0001:0000c280  1772 0001:0000c295  1775 0001:0000c2b1  1777 0001:0000c2df
  1778 0001:0000c303  1779 0001:0000c31b  1784 0001:0000c337  1787 0001:0000c346
  1813 0001:0000c34e  1795 0001:0000c378  1806 0001:0000c385  1807 0001:0000c3bf
  1808 0001:0000c3d1  1812 0001:0000c3e3  1813 0001:0000c3f2  1818 0001:0000c41a
  1823 0001:0000c420  1822 0001:0000c420  1829 0001:0000c436  1832 0001:0000c439
  1834 0001:0000c475  1837 0001:0000c477  1842 0001:0000c489  1843 0001:0000c498
  1847 0001:0000c4bc  1852 0001:0000c4d0  1851 0001:0000c4d0  1858 0001:0000c4e6
  1861 0001:0000c4e9  1863 0001:0000c525  1866 0001:0000c527  1871 0001:0000c539
  1872 0001:0000c548  1876 0001:0000c56c  1885 0001:0000c580  1880 0001:0000c580
  1890 0001:0000c592  1893 0001:0000c5a5  1897 0001:0000c5a7  1901 0001:0000c5b5
  1903 0001:0000c5c0  1920 0001:0000c5d4  1922 0001:0000c5e6  1928 0001:0000c5ee
  1929 0001:0000c5fd  1932 0001:0000c621  1913 0001:0000c627  1915 0001:0000c639
  1918 0001:0000c65b  1936 0001:0000c660  1941 0001:0000c663  1946 0001:0000c679
  1949 0001:0000c68c  1953 0001:0000c68e  1957 0001:0000c69c  1959 0001:0000c6a0
  1961 0001:0000c6b6  1966 0001:0000c6bb  1968 0001:0000c6c3  1970 0001:0000c6ce
  1971 0001:0000c6e6  1972 0001:0000c6fc  1973 0001:0000c70e  1974 0001:0000c724
  1975 0001:0000c736  1976 0001:0000c74c  1977 0001:0000c75e  1978 0001:0000c774
  1979 0001:0000c786  1981 0001:0000c79c  1984 0001:0000c79e  1985 0001:0000c7b8
  1986 0001:0000c7bc  1987 0001:0000c7ca  1988 0001:0000c7ce  1989 0001:0000c7dc
  1990 0001:0000c7e0  1991 0001:0000c7ee  1992 0001:0000c7f2  1993 0001:0000c800
  1998 0001:0000c804  1999 0001:0000c813  2002 0001:0000c83b  2011 0001:0000c850
  2006 0001:0000c850  2016 0001:0000c862  2019 0001:0000c875  2023 0001:0000c877
  2027 0001:0000c885  2029 0001:0000c890  2046 0001:0000c8a5  2048 0001:0000c8b7
  2054 0001:0000c8bf  2055 0001:0000c8ce  2058 0001:0000c8f2  2039 0001:0000c8f8
  2041 0001:0000c90a  2044 0001:0000c92c  2065 0001:0000c930  2062 0001:0000c930
  2068 0001:0000c941  2072 0001:0000c948  2073 0001:0000c95e  2076 0001:0000c981
  2080 0001:0000c990  2082 0001:0000c996  2085 0001:0000c9ad  2086 0001:0000c9b4
  2087 0001:0000c9bb  2090 0001:0000c9c4  2092 0001:0000c9c6  2094 0001:0000c9cc
  2096 0001:0000c9e0  2098 0001:0000c9e2  2104 0001:0000ca00  2108 0001:0000ca1a
  2109 0001:0000ca29  2113 0001:0000ca4d  2124 0001:0000ca60  2117 0001:0000ca60
  2125 0001:0000ca65  2130 0001:0000cac0  2134 0001:0000cad2  2138 0001:0000cade
  2142 0001:0000cb12  2143 0001:0000cb21  2146 0001:0000cb45  2149 0001:0000cb5e
  2162 0001:0000cb70  2164 0001:0000cb73  2167 0001:0000cb7e  2170 0001:0000cb88
  2172 0001:0000cbae  2175 0001:0000cbb1  2179 0001:0000cbcc  2180 0001:0000cbd1
  2183 0001:0000cc04  2264 0001:0000cc10  2265 0001:0000cc13  2267 0001:0000cc28
  2269 0001:0000cc41  2270 0001:0000cc49  2271 0001:0000cc51  2274 0001:0000cc7e
  2364 0001:0000cc80  2365 0001:0000cc92  2369 0001:0000cc97  2372 0001:0000ccab
  2376 0001:0000ccc5  2377 0001:0000ccd1  2380 0001:0000ccee  2383 0001:0000ccf2
  2386 0001:0000ccf5  2390 0001:0000cd07  2391 0001:0000cd12  2396 0001:0000cd34
  2401 0001:0000cd46  2403 0001:0000cd5c  2405 0001:0000cd5e  2409 0001:0000cd67
  2413 0001:0000cd74  2414 0001:0000cd7f  2418 0001:0000cda1  2421 0001:0000cdb3
  2424 0001:0000cdbe  2425 0001:0000cdcb  2429 0001:0000cdd8  2430 0001:0000cde3
  2435 0001:0000ce05  2436 0001:0000ce13  2439 0001:0000ce29  2442 0001:0000ce5d
  2446 0001:0000ce6a  2447 0001:0000ce75  2451 0001:0000ce99  2464 0001:0000ce9f
  2468 0001:0000cee0  2469 0001:0000cee8  2475 0001:0000ceed  2479 0001:0000cefe
  2483 0001:0000cf10  2486 0001:0000cf1c  2487 0001:0000cf2e  2490 0001:0000cf3c
  2491 0001:0000cf40  2494 0001:0000cf55  2514 0001:0000cf6a  2519 0001:0000cf77
  2521 0001:0000cf8e  2523 0001:0000cf90  2528 0001:0000cf9b  2529 0001:0000cfaa
  2533 0001:0000cfcd  2536 0001:0000cfd5  2540 0001:0000cfe0  2541 0001:0000cfe0
  2545 0001:0000cffa  2548 0001:0000d008  2551 0001:0000d01a  2554 0001:0000d029
  2558 0001:0000d031  2561 0001:0000d044  2568 0001:0000d049  2570 0001:0000d061
  2571 0001:0000d06d  2574 0001:0000d08c  2576 0001:0000d08e  2580 0001:0000d095
  2584 0001:0000d0a7  2585 0001:0000d0b6  2588 0001:0000d0dd  2592 0001:0000d0e0
  2593 0001:0000d0e8  2596 0001:0000d0ed  2599 0001:0000d101  2602 0001:0000d105
  2605 0001:0000d112  2612 0001:0000d11b  2615 0001:0000d127  2618 0001:0000d132
  2621 0001:0000d13f  2625 0001:0000d150  2626 0001:0000d15f  2630 0001:0000d186
  2634 0001:0000d190  2637 0001:0000d194  2638 0001:0000d1a1  2641 0001:0000d1b0
  2643 0001:0000d1c9  2647 0001:0000d1cf  2646 0001:0000d1d5  2647 0001:0000d1dd
  2745 0001:0000d1f0  2744 0001:0000d1f0  2746 0001:0000d202  2747 0001:0000d208
  2748 0001:0000d212  2750 0001:0000d219  2751 0001:0000d221  2754 0001:0000d228
  2755 0001:0000d246  2756 0001:0000d254  2758 0001:0000d25e  2760 0001:0000d260
  2761 0001:0000d276  2762 0001:0000d284  2765 0001:0000d2a2  2776 0001:0000d2b0
  2775 0001:0000d2b0  2778 0001:0000d2ca  2780 0001:0000d2ea  2781 0001:0000d2f3
  2782 0001:0000d2ff  2785 0001:0000d30d  2782 0001:0000d310  2785 0001:0000d317
  2784 0001:0000d31c  2785 0001:0000d320  2812 0001:0000d330  2813 0001:0000d359
  2814 0001:0000d36e  2816 0001:0000d38b  2817 0001:0000d3a9  2819 0001:0000d3b7
  2821 0001:0000d3d0  2822 0001:0000d3d7  2823 0001:0000d3df  2824 0001:0000d3e1
  2819 0001:0000d3e8  2827 0001:0000d3ed  2829 0001:0000d3f2  2830 0001:0000d3fb
  2831 0001:0000d3ff  2832 0001:0000d411  2844 0001:0000d432  2832 0001:0000d44a
  2834 0001:0000d44c  2836 0001:0000d45a  2838 0001:0000d464  2839 0001:0000d466
  2840 0001:0000d46e  2841 0001:0000d47c  2842 0001:0000d483  2846 0001:0000d494
  2847 0001:0000d4a8  2851 0001:0000d4d0  2852 0001:0000d4de  2856 0001:0000d4fa
  2859 0001:0000d4fc  2862 0001:0000d516  2864 0001:0000d545  2865 0001:0000d54f
  2866 0001:0000d56c  2867 0001:0000d596  2868 0001:0000d5b2  2872 0001:0000d5c4
  2875 0001:0000d5d3  2877 0001:0000d5ed  2880 0001:0000d5ef  2891 0001:0000d5f8
  2892 0001:0000d630  2896 0001:0000d646  2897 0001:0000d655  2904 0001:0000d677
  2920 0001:0000d690  2922 0001:0000d6ab  2923 0001:0000d6b1  2924 0001:0000d6c5
  2925 0001:0000d6d1  2926 0001:0000d6d7  2929 0001:0000d6db  2931 0001:0000d6e3
  2932 0001:0000d6ee  2934 0001:0000d705  2936 0001:0000d71b  3004 0001:0000d72a
  2938 0001:0000d73b  2941 0001:0000d74d  2942 0001:0000d755  2945 0001:0000d75c
  2946 0001:0000d767  2949 0001:0000d76e  2952 0001:0000d780  2954 0001:0000d789
  2955 0001:0000d793  2956 0001:0000d7b3  2957 0001:0000d7cf  2960 0001:0000d7e1
  2962 0001:0000d7f8  3004 0001:0000d7fb  2966 0001:0000d80c  2969 0001:0000d81d
  2971 0001:0000d826  2972 0001:0000d830  2973 0001:0000d850  2974 0001:0000d86c
  2977 0001:0000d87e  2979 0001:0000d895  3004 0001:0000d898  2983 0001:0000d8a9
  2984 0001:0000d8b4  2987 0001:0000d8cf  2989 0001:0000d8d8  2990 0001:0000d8e2
  2991 0001:0000d902  2992 0001:0000d91e  2995 0001:0000d930  2997 0001:0000d947
  3004 0001:0000d94a  3009 0001:0000d980  3010 0001:0000d983  3013 0001:0000d98d
  3014 0001:0000d9a3  3020 0001:0000d9bd  3025 0001:0000d9ca  3019 0001:0000d9cb
  3020 0001:0000d9d8  3025 0001:0000d9ff  2233 0001:0000da40  2234 0001:0000da5b
  2235 0001:0000da77  2236 0001:0000da94  2239 0001:0000daa3  2240 0001:0000dabe
  2254 0001:0000dad3  2244 0001:0000dae4  2246 0001:0000daea  2247 0001:0000db00
  2249 0001:0000db1c  2250 0001:0000db34  2253 0001:0000db47  2254 0001:0000db5b
  2651 0001:0000db70  2652 0001:0000db71  2678 0001:0000db98  2679 0001:0000dba7
  2699 0001:0000dbad  2673 0001:0000dbb0  2674 0001:0000dbda  2699 0001:0000dbe0
  2668 0001:0000dbe3  2669 0001:0000dbf2  2699 0001:0000dbf8  2693 0001:0000dbfb
  2694 0001:0000dc00  2699 0001:0000dc06  2652 0001:0000dc09  2662 0001:0000dc23
  2664 0001:0000dc37  2699 0001:0000dc3d  2683 0001:0000dc40  2684 0001:0000dc4f
  2699 0001:0000dc55  2688 0001:0000dc58  2689 0001:0000dc7c  2699 0001:0000dc82
  2698 0001:0000dc85  2699 0001:0000dc91  2789 0001:0000dd70  2790 0001:0000dd87
  2792 0001:0000dd96  2794 0001:0000dd9c  2795 0001:0000dda6  2796 0001:0000ddc6
  2798 0001:0000ddd2  2800 0001:0000dddb  2802 0001:0000dddd  2804 0001:0000ddee
  2807 0001:0000de00  2808 0001:0000de09    79 0001:000198d0

Line numbers for .\Release_Unicode\GameClientView.obj(h:\ry\\\\ d3d\cardcontrol.h) segment .text

   252 0001:00007690   259 0001:000076a0   261 0001:000076b0   276 0001:000076c0
   280 0001:000076d0

Line numbers for .\Release_Unicode\GameClientEngine.obj(c:\program files (x86)\microsoft visual studio .net 2003\vc7\atlmfc\include\afxwin2.inl) segment .text

    46 0001:000031a0   183 0001:000031c0   182 0001:000031c0   185 0001:000031e0
   488 0001:00003200

Line numbers for .\Release_Unicode\GameClientEngine.obj(c:\program files (x86)\microsoft visual studio .net 2003\vc7\atlmfc\include\afxwin1.inl) segment .text

    35 0001:00003180    36 0001:00003185

Line numbers for .\Release_Unicode\GameClientEngine.obj(c:\program files (x86)\microsoft visual studio .net 2003\vc7\atlmfc\include\cstringt.h) segment .text

  2122 0001:00003160  2121 0001:00003160  2123 0001:00003175

Line numbers for .\Release_Unicode\GameClientEngine.obj(c:\program files (x86)\microsoft visual studio .net 2003\vc7\atlmfc\include\atltypes.inl) segment .text

   123 0001:000027a0   125 0001:000027b0

Line numbers for .\Release_Unicode\GameClientEngine.obj(h:\ry\\\\ d3d\gameclientengine.cpp) segment .text

    23 0001:000021a0    23 0001:000021b0    55 0001:000021c0    57 0001:00002233
    58 0001:00002236    59 0001:00002239    60 0001:0000223c    61 0001:00002240
    62 0001:00002243    63 0001:00002246    64 0001:0000224a    67 0001:0000224d
    68 0001:00002253    69 0001:00002259    70 0001:0000225f    73 0001:00002265
    75 0001:00002268    76 0001:00002274    77 0001:00002278    78 0001:0000227c
    79 0001:00002287    90 0001:0000228f    93 0001:000022e1    94 0001:000022f0
    97 0001:000022fc   101 0001:00002320   102 0001:0000234a   173 0001:000023b0
   172 0001:000023b0   174 0001:000023b2  1019 0001:000023c0  1022 0001:000023c3
  1058 0001:000023da  1028 0001:000023ec  1031 0001:000023f6  1032 0001:00002401
  1033 0001:00002409  1036 0001:0000240c  1037 0001:0000241e  1038 0001:00002429
  1039 0001:00002436  1042 0001:0000243f  1043 0001:0000244b  1049 0001:00002462
  1051 0001:00002476  1053 0001:00002482  1054 0001:00002495  1058 0001:000024c4
  1582 0001:000024e0  1584 0001:000024ef  1585 0001:000024ff  1589 0001:0000250f
  1592 0001:00002521  1595 0001:0000252a  1596 0001:00002544  1604 0001:00002558
  1599 0001:00002565  1604 0001:00002574  1600 0001:00002581  1604 0001:00002599
  1608 0001:000025c0  1610 0001:000025c4  1611 0001:000025cc  1612 0001:000025d5
  1647 0001:000025da  1615 0001:000025de  1616 0001:000025e0  1619 0001:000025ee
  1620 0001:00002605  1623 0001:00002627  1626 0001:00002630  1629 0001:00002635
  1632 0001:00002639  1637 0001:00002650  1640 0001:00002662  1641 0001:0000266a
  1642 0001:00002680  1643 0001:00002696  1647 0001:00002699  1619 0001:0000269d
  1647 0001:000026a0  1801 0001:000026b0  1740 0001:000026b0  2003 0001:000026c0
  2005 0001:000026c6  2006 0001:000026d1  2009 0001:000026de  2017 0001:000026f1
  2012 0001:000026f4  2014 0001:000026f8  2015 0001:00002705  2017 0001:00002717
  2377 0001:00002720  2379 0001:00002723  2382 0001:00002730  2383 0001:00002740
  2384 0001:0000274a  2385 0001:00002754  2389 0001:0000275e  2390 0001:00002762
  2392 0001:00002778  2393 0001:0000277b  2397 0001:00002780  2399 0001:00002783
  2400 0001:00002788  2402 0001:0000279a  2403 0001:0000279d  2530 0001:000027c0
  2531 0001:000027f4  2532 0001:000027fa  2533 0001:00002812  2537 0001:00002818
  2538 0001:0000282d  2541 0001:00002855  2546 0001:0000286f  2550 0001:00002889
  2555 0001:00002897  2557 0001:000028b9  2558 0001:000028c0  2559 0001:000028c6
  2561 0001:000028cc  2563 0001:000028d3  2564 0001:000028dd  2568 0001:000028e2
  2575 0001:000028ef  2581 0001:00002914  2582 0001:0000291e  2579 0001:00002923
  2580 0001:00002930  2581 0001:0000293c  2582 0001:00002946  2586 0001:0000294b
  2593 0001:0000295e  2599 0001:0000297b  2600 0001:00002985  2597 0001:0000298a
  2598 0001:00002997  2599 0001:000029a3  2600 0001:000029ad  2604 0001:000029b2
  2611 0001:000029bf  2617 0001:000029e6  2618 0001:000029f0  2615 0001:000029f5
  2616 0001:00002a02  2617 0001:00002a0e  2618 0001:00002a18  2622 0001:00002a1d
  2629 0001:00002a2a  2635 0001:00002a51  2636 0001:00002a5b  2633 0001:00002a60
  2634 0001:00002a6d  2635 0001:00002a79  2636 0001:00002a83  2640 0001:00002a88
  2647 0001:00002a95  2648 0001:00002abc  2649 0001:00002ad2  2650 0001:00002af1
  2653 0001:00002afb  2655 0001:00002b08  2656 0001:00002b10  2658 0001:00002b2c
  2664 0001:00002b5a  2665 0001:00002b67  2666 0001:00002b73  2665 0001:00002b7d
  2672 0001:00002b84  2675 0001:00002b8e  2677 0001:00002bb5  2680 0001:00002bc7
  2682 0001:00002be6  2685 0001:00002bf6  2687 0001:00002bf8  2690 0001:00002c07
  2692 0001:00002c20  2696 0001:00002c2e  2699 0001:00002c48  2705 0001:00002c80
  2703 0001:00002c80  2707 0001:00002c8e  2708 0001:00002c90  2712 0001:00002ca0
  2714 0001:00002cce  2716 0001:00002cd0  2723 0001:00002cee  2726 0001:00002d0a
  2729 0001:00002d12  2730 0001:00002d25  2733 0001:00002d3c  2736 0001:00002d56
  2739 0001:00002d65  2740 0001:00002d77  2741 0001:00002d81  2744 0001:00002d8b
  2745 0001:00002da5  2750 0001:00002db9  2751 0001:00002dbf  2752 0001:00002dca
  2754 0001:00002df5  2760 0001:00002e1e  2761 0001:00002e28  2771 0001:00002e37
  2772 0001:00002e5a  2775 0001:00002e70  2776 0001:00002e92  2777 0001:00002ea7
  2779 0001:00002ebc  2783 0001:00002ece  2799 0001:00002ed6  2803 0001:00002f00
  2806 0001:00002f0f  2809 0001:00002f20  2810 0001:00002f2f  2812 0001:00002f4e
  2814 0001:00002f56  2817 0001:00002f83  2820 0001:00002f9d  2823 0001:00002fb4
  2824 0001:00002fc0  2825 0001:00002fca  2826 0001:00002fd4  2829 0001:00002fde
  2830 0001:00002fea  2831 0001:00002ff4  2832 0001:00002ffe  2836 0001:00003008
  2838 0001:00003014  2845 0001:0000301e  2846 0001:0000303a  2849 0001:0000304a
  2850 0001:00003072  2851 0001:00003087  2856 0001:0000309c  2858 0001:000030ad
  2860 0001:000030c0  2861 0001:000030d3  2864 0001:00003102  2867 0001:0000311c
  2870 0001:0000313a  3118 0001:00003150  3117 0001:00003150   106 0001:00003230
   108 0001:00003233   109 0001:00003247   112 0001:00003261   113 0001:00003267
   115 0001:0000326e   116 0001:00003272   119 0001:00003289   120 0001:0000328c
   124 0001:00003290   126 0001:00003292   127 0001:000032a5   130 0001:000032b0
   131 0001:000032b5   132 0001:000032b8   133 0001:000032bb   134 0001:000032bf
   135 0001:000032c2   138 0001:000032c6   139 0001:000032cc   140 0001:000032d2
   141 0001:000032d8   144 0001:000032de   146 0001:000032e1   149 0001:000032e4
   152 0001:00003300   153 0001:00003306   154 0001:00003314   155 0001:0000331e
   156 0001:00003324   160 0001:00003334   161 0001:00003343   164 0001:0000334f
   165 0001:00003355   167 0001:0000336a   168 0001:0000336d   262 0001:00003370
   264 0001:00003375   269 0001:00003381   282 0001:0000339d   291 0001:000033a9
   292 0001:000033b3   293 0001:000033bd   294 0001:000033c7   298 0001:000033cd
   301 0001:000033ea   302 0001:000033ed   370 0001:000033f0   368 0001:000033f0
   769 0001:00003416   770 0001:00003419   598 0001:0000341f   601 0001:00003427
   605 0001:00003430   606 0001:0000343a   607 0001:00003442   608 0001:00003448
   611 0001:00003450   612 0001:00003458   613 0001:00003461   614 0001:0000346a
   617 0001:00003473   618 0001:0000347c   621 0001:00003496   622 0001:000034a0
   625 0001:000034d9   626 0001:000034e9   629 0001:00003504   630 0001:00003517
   633 0001:0000352b   636 0001:00003535   641 0001:00003541   642 0001:00003566
   644 0001:0000357f   647 0001:0000359d   648 0001:000035a6   649 0001:000035aa
   654 0001:000035de   656 0001:000035f0   657 0001:0000360f   659 0001:00003625
   660 0001:0000362f   661 0001:0000363d   662 0001:00003647   664 0001:00003655
   669 0001:00003667   670 0001:00003677   673 0001:00003688   674 0001:00003692
   675 0001:0000369f   676 0001:000036b0   681 0001:000036bd   682 0001:000036d2
   686 0001:000036f7   688 0001:00003703   689 0001:0000370d   690 0001:00003717
   691 0001:00003725   697 0001:00003733   698 0001:00003741   699 0001:00003763
   703 0001:0000376d   706 0001:00003792   707 0001:0000379c   708 0001:000037a6
   711 0001:000037b0   712 0001:000037ca   715 0001:000037e2   717 0001:000037ed
   719 0001:0000380b   722 0001:0000380d   727 0001:00003842   730 0001:00003850
   733 0001:00003862   737 0001:0000386f   738 0001:00003889   742 0001:000038a7
   743 0001:000038c3   746 0001:000038d9   747 0001:00003901   748 0001:00003916
   751 0001:0000392b   762 0001:0000392d   446 0001:00003932   452 0001:0000393e
   455 0001:0000394a   456 0001:00003952   457 0001:0000395b   458 0001:00003964
   461 0001:0000396d   462 0001:0000397e   463 0001:00003989   466 0001:000039b7
   467 0001:000039c6   470 0001:000039d3   471 0001:000039e1   474 0001:000039f0
   476 0001:000039f5   479 0001:000039fb   484 0001:00003a1d   487 0001:00003a36
   492 0001:00003a3f   493 0001:00003a60   495 0001:00003a75   498 0001:00003a8f
   499 0001:00003a98   500 0001:00003a9c   504 0001:00003ad3   507 0001:00003af4
   508 0001:00003b04   509 0001:00003b0e   510 0001:00003b18   513 0001:00003b22
   514 0001:00003b37   515 0001:00003b4f   521 0001:00003b6f   523 0001:00003b7b
   524 0001:00003b85   525 0001:00003b8f   526 0001:00003b99   530 0001:00003ba3
   531 0001:00003bc1   534 0001:00003bc7   536 0001:00003bd0   537 0001:00003bf6
   539 0001:00003bfc   540 0001:00003c0a   541 0001:00003c14   542 0001:00003c22
   544 0001:00003c2c   549 0001:00003c36   551 0001:00003c40   553 0001:00003c45
   558 0001:00003c64   561 0001:00003c70   564 0001:00003c87   565 0001:00003c94
   568 0001:00003c96   569 0001:00003cac   573 0001:00003cca   574 0001:00003ce6
   577 0001:00003cfc   578 0001:00003d24   579 0001:00003d39   582 0001:00003d4e
   584 0001:00003d5a   585 0001:00003d6a   586 0001:00003d74   587 0001:00003d7e
   590 0001:00003d88   770 0001:00003da0   376 0001:00003da6   382 0001:00003db2
   383 0001:00003dc2   386 0001:00003dd4   387 0001:00003ddd   388 0001:00003de6
   389 0001:00003def   392 0001:00003df8   395 0001:00003e09   396 0001:00003e15
   397 0001:00003e1f   400 0001:00003e29   402 0001:00003e3d   403 0001:00003e45
   405 0001:00003e4e   407 0001:00003e5a   409 0001:00003e5e   410 0001:00003e7f
   417 0001:00003e93   420 0001:00003ea0   423 0001:00003eb0   424 0001:00003ebd
   427 0001:00003ec5   428 0001:00003ed6   432 0001:00003eed   434 0001:00003efa
   435 0001:00003f0a   436 0001:00003f14   437 0001:00003f1e   440 0001:00003f2b
   770 0001:00003f2e   774 0001:00003f40   777 0001:00003f43   917 0001:00003f51
   783 0001:00003f5a   786 0001:00003f64   787 0001:00003f7f   788 0001:00003f89
   790 0001:00003f93   791 0001:00003f9a   802 0001:00003f9c   803 0001:00003feb
   807 0001:00003ff9   810 0001:0000401b   811 0001:0000402a   814 0001:00004038
   817 0001:00004043   818 0001:00004052   821 0001:0000405e   822 0001:00004069
   825 0001:00004072   826 0001:0000407b   827 0001:00004084   828 0001:00004092
   829 0001:000040a0   832 0001:000040ae   833 0001:000040c6   836 0001:000040d6
   839 0001:000040e3   840 0001:000040fc   841 0001:00004107   844 0001:00004110
   846 0001:00004116   847 0001:00004138   848 0001:00004147   850 0001:00004158
   851 0001:0000415c   853 0001:00004172   855 0001:00004174   856 0001:0000418f
   857 0001:000041a2   858 0001:000041a9   859 0001:000041b6   860 0001:000041b9
   861 0001:000041c7   862 0001:000041c9   864 0001:000041d2   867 0001:000041dd
   868 0001:000041ea   869 0001:000041ee   874 0001:0000422b   875 0001:0000423a
   878 0001:00004243   880 0001:0000424b   883 0001:0000428a   886 0001:000042a0
   887 0001:000042a8   889 0001:000042b0   891 0001:000042b2   892 0001:000042c4
   894 0001:000042d1   896 0001:000042d3   897 0001:000042de   899 0001:000042e6
   900 0001:000042ef   902 0001:000042f5   908 0001:00004317   912 0001:00004332
   913 0001:00004344   914 0001:00004368   916 0001:00004377   917 0001:0000437a
   921 0001:00004380   924 0001:00004380  1015 0001:0000438e   930 0001:00004393
   933 0001:000043a1   934 0001:000043b4   936 0001:000043c2   938 0001:000043c9
   941 0001:000043d5   944 0001:000043dd   947 0001:00004402   950 0001:00004418
   953 0001:00004435   956 0001:00004444   957 0001:00004456   958 0001:00004460
   959 0001:0000446a   962 0001:00004474   963 0001:00004487   964 0001:0000449b
   969 0001:000044af   972 0001:000044c0   976 0001:000044da   977 0001:000044df
   978 0001:000044ed   982 0001:000044ef   983 0001:000044f4   984 0001:00004502
   988 0001:00004504   989 0001:00004509   990 0001:00004517   994 0001:00004519
   995 0001:0000451e  1003 0001:0000453e  1004 0001:00004563  1007 0001:00004579
  1008 0001:000045a0  1009 0001:000045b4  1011 0001:000045c8  1014 0001:000045dd
  1015 0001:000045e0  1535 0001:00004700  1538 0001:00004703  1578 0001:00004711
  1544 0001:00004718  1578 0001:00004726  1546 0001:0000472d  1548 0001:0000473a
  1549 0001:0000473e  1552 0001:00004754  1553 0001:00004783  1554 0001:000047a9
  1556 0001:000047cf  1557 0001:000047d8  1561 0001:00004810  1564 0001:00004812
  1566 0001:00004822  1568 0001:00004842  1570 0001:0000484d  1575 0001:00004874
  1576 0001:00004883  1577 0001:000048b4  1578 0001:000048b7  1651 0001:000048c0
  1653 0001:000048cf  1693 0001:000048d9  1659 0001:000048e6  1662 0001:000048fc
  1665 0001:0000490d  1668 0001:00004910  1669 0001:00004919  1673 0001:00004927
  1676 0001:0000493c  1679 0001:00004951  1681 0001:00004962  1683 0001:00004964
  1689 0001:00004981  1690 0001:00004993  1693 0001:000049b9  1805 0001:000049d0
  1808 0001:000049da  1811 0001:000049fc  1814 0001:00004a0d  1817 0001:00004a1c
  1822 0001:00004a32  1823 0001:00004a37  1826 0001:00004a3b  1827 0001:00004a52
  1832 0001:00004a7c  1837 0001:00004a81  1840 0001:00004a88  1841 0001:00004a8a
  1846 0001:00004ab2  1851 0001:00004ab7  1854 0001:00004abe  1855 0001:00004ac0
  1860 0001:00004ae8  1865 0001:00004aed  1868 0001:00004af4  1869 0001:00004af6
  1874 0001:00004b1e  1879 0001:00004b23  1882 0001:00004b2a  1883 0001:00004b2c
  1888 0001:00004b54  1893 0001:00004b59  1896 0001:00004b60  1897 0001:00004b62
  1902 0001:00004b8a  1907 0001:00004b8f  1910 0001:00004b96  1912 0001:00004b98
  1913 0001:00004baf  1914 0001:00004bcc  1915 0001:00004bce  1918 0001:00004bed
  1920 0001:00004bf7  1925 0001:00004bfc  1928 0001:00004c03  1929 0001:00004c05
  1930 0001:00004c1c  1931 0001:00004c39  1932 0001:00004c3e  1937 0001:00004c54
  1942 0001:00004c59  1945 0001:00004c60  1946 0001:00004c62  1951 0001:00004c8a
  1956 0001:00004c8f  1959 0001:00004c96  1960 0001:00004c98  1965 0001:00004cc0
  1970 0001:00004cc2  1973 0001:00004cc9  1974 0001:00004ccb  1979 0001:00004cf3
  1984 0001:00004cf5  1987 0001:00004cfc  1988 0001:00004cfe  1991 0001:00004d36
  1998 0001:00004d4e  2021 0001:00004d90  2022 0001:00004dae  2028 0001:00004dd7
  2031 0001:00004de6  2033 0001:00004df0  2040 0001:00004e0e  2043 0001:00004e1d
  2044 0001:00004e21  2047 0001:00004e29  2049 0001:00004e31  2053 0001:00004e40
  2055 0001:00004e50  2056 0001:00004e5e  2060 0001:00004e74  2063 0001:00004e96
  2066 0001:00004ea5  2067 0001:00004eb7  2068 0001:00004ec1  2069 0001:00004ecf
  2070 0001:00004ed9  2076 0001:00004ef1  2080 0001:00004f40  2081 0001:00004f4a
  2091 0001:00004f53  2092 0001:00004f76  2095 0001:00004f8c  2096 0001:00004fb4
  2097 0001:00004fc9  2099 0001:00004fde  2128 0001:00004ff0  2106 0001:00005003
  2128 0001:0000500a  2022 0001:0000501d  2114 0001:00005035  2116 0001:00005040
  2118 0001:0000504f  2119 0001:00005060  2120 0001:00005075  2121 0001:00005084
  2122 0001:000050a3  2127 0001:000050bf  2128 0001:000050c6  2132 0001:000050e0
  2134 0001:000050e7  2139 0001:00005101  2140 0001:0000510e  2141 0001:00005117
  2145 0001:00005126  2150 0001:00005133  2151 0001:0000514a  2154 0001:00005156
  2155 0001:0000515e  2156 0001:00005166  2157 0001:00005173  2158 0001:00005180
  2159 0001:0000518d  2162 0001:00005195  2163 0001:000051a4  2164 0001:000051af
  2165 0001:000051b8  2169 0001:000051c1  2170 0001:000051d3  2173 0001:000051f3
  2175 0001:00005200  2176 0001:00005203  2180 0001:00005210  2182 0001:00005225
  2183 0001:00005243  2186 0001:00005253  2189 0001:0000525a  2192 0001:00005267
  2194 0001:0000526d  2201 0001:00005274  2202 0001:00005294  2203 0001:000052a0
  2204 0001:000052aa  2205 0001:000052ba  2209 0001:000052c0  2212 0001:000052d8
  2215 0001:000052f1  2216 0001:000052f8  2219 0001:0000530d  2220 0001:00005315
  2221 0001:0000531c  2227 0001:0000534f  2231 0001:0000535c  2245 0001:00005375
  2250 0001:0000538d  2231 0001:000053a1  2236 0001:000053b6  2239 0001:000053c3
  2240 0001:000053ca  2242 0001:000053ec  2250 0001:000053ee  2252 0001:000053fd
  2253 0001:0000540a  2255 0001:0000541c  2257 0001:00005425  2260 0001:00005432
  2262 0001:00005438  2263 0001:00005445  2265 0001:0000545c  2267 0001:0000546c
  2270 0001:00005479  2271 0001:000054b0  2272 0001:000054f6  2274 0001:0000552d
  2275 0001:00005534  2276 0001:0000556b  2278 0001:00005580  2282 0001:0000559a
  2286 0001:000055b0  2287 0001:000055b4  2290 0001:000055d1  2293 0001:000055e8
  2297 0001:00005600  2299 0001:00005607  2300 0001:0000561d  2303 0001:0000562f
  2306 0001:00005636  2314 0001:00005643  2315 0001:00005669  2316 0001:0000566f
  2317 0001:00005679  2318 0001:00005685  2321 0001:0000568b  2324 0001:0000569f
  2327 0001:000056b0  2331 0001:000056bf  2332 0001:000056d1  2335 0001:000056f5
  2336 0001:000056fd  2339 0001:00005724  2341 0001:00005731  2342 0001:00005734
  2346 0001:00005740  2347 0001:00005743  2350 0001:00005749  2354 0001:00005753
  2357 0001:0000577a  2359 0001:00005781  2362 0001:00005793  2365 0001:000057ad
  2372 0001:000057bf  2373 0001:000057c8  2371 0001:000057cb  2372 0001:000057d6
  2373 0001:000057d9  2407 0001:000057e0  2409 0001:000057ef  2412 0001:000057f9
  2415 0001:00005802  2418 0001:00005805  2419 0001:0000580d  2451 0001:0000582b
  2452 0001:0000582e  2426 0001:0000583e  2429 0001:0000584c  2430 0001:00005854
  2434 0001:0000587d  2437 0001:00005895  2440 0001:000058a7  2443 0001:000058b8
  2444 0001:000058c8  2448 0001:000058ea  2449 0001:000058fc  2452 0001:00005929
  2456 0001:00005940  2457 0001:0000594f  2460 0001:0000595d  2463 0001:00005965
  2464 0001:0000596e  2468 0001:0000597c  2471 0001:0000598f  2472 0001:000059a4
  2476 0001:000059ca  2480 0001:000059e0  2484 0001:000059f3  2485 0001:00005a05
  2493 0001:00005a2c  2494 0001:00005a2f  2490 0001:00005a3e  2494 0001:00005a45
  2498 0001:00005a60  2500 0001:00005a67  2501 0001:00005a6f  2503 0001:00005a7c
  2504 0001:00005a90  2505 0001:00005a9a  2506 0001:00005aa4  2508 0001:00005ac0
  2510 0001:00005ac2  2511 0001:00005ad0  2512 0001:00005adc  2513 0001:00005ae6
  2518 0001:00005b02  2519 0001:00005b14  2522 0001:00005b40  2523 0001:00005b43
  2525 0001:00005b5a  2526 0001:00005b5d  2874 0001:00005b70  2877 0001:00005b96
  2880 0001:00005ba4  2881 0001:00005bb8  2884 0001:00005bd1  2885 0001:00005bdc
  2886 0001:00005bf3  2888 0001:00005c00  2891 0001:00005c0a  2915 0001:00005c1d
  2918 0001:00005c28  2919 0001:00005c33  2895 0001:00005c4f  2898 0001:00005c60
  2899 0001:00005c6c  2902 0001:00005c87  2905 0001:00005cb1  2909 0001:00005ce9
  2923 0001:00005d14  2926 0001:00005d24  2929 0001:00005d33  2932 0001:00005d3d
  2933 0001:00005d4d  2936 0001:00005d5b  2937 0001:00005d67  2938 0001:00005d71
  2944 0001:00005d7b  2948 0001:00005dc3  2949 0001:00005dcd  2959 0001:00005de3
  2966 0001:00005dea  2969 0001:00005e00  2970 0001:00005e22  2971 0001:00005e3d
  2974 0001:00005e52  2975 0001:00005e6e  2978 0001:00005e7e  2980 0001:00005e8a
  2983 0001:00005e98  2986 0001:00005eaa  2990 0001:00005ec0  2991 0001:00005ec3
  2992 0001:00005ec9  2994 0001:00005edf  2995 0001:00005ee3  3002 0001:00005ef9
  3003 0001:00005efc  2997 0001:00005eff  2999 0001:00005f03  3000 0001:00005f0b
  3002 0001:00005f0f  3003 0001:00005f12  3008 0001:00005f20  3007 0001:00005f20
  3010 0001:00005f29  3014 0001:00005f30  3015 0001:00005f30  3017 0001:00005f50
  3015 0001:00005f51  3017 0001:00005f61  3021 0001:00005f70  3022 0001:00005f88
  3027 0001:00005f9c  3029 0001:00005faf  3030 0001:00005fbe  3031 0001:00005fd2
  3032 0001:00005fee  3034 0001:00006016  3035 0001:00006047  3036 0001:00006082
  3038 0001:00006090  3039 0001:00006095  3040 0001:00006099  3043 0001:000060ab
  3050 0001:000060de  3043 0001:000060f1  3045 0001:000060f3  3046 0001:00006104
  3047 0001:00006116  3048 0001:00006137  3053 0001:00006141  3058 0001:00006160
  3059 0001:0000616a  3063 0001:00006180  3065 0001:00006184  3066 0001:0000618c
  3067 0001:00006191  3069 0001:00006199  3070 0001:000061a0  3073 0001:000061b7
  3074 0001:000061ba  3072 0001:000061bd  3073 0001:000061c6  3074 0001:000061c9
  3078 0001:000061d0  3079 0001:000061fa  3081 0001:00006204  3082 0001:00006228
  3084 0001:00006230  3085 0001:00006241  3086 0001:00006249  3089 0001:00006258
  3091 0001:00006263  3093 0001:00006281  3095 0001:0000628a  3097 0001:000062a8
  3099 0001:000062b1  3101 0001:000062d0  3103 0001:000062e3  3105 0001:000062e8
  3107 0001:00006304  3109 0001:00006312  3111 0001:0000631e  3112 0001:00006333
  3113 0001:00006357  3114 0001:0000635a  1062 0001:00006380  1069 0001:00006392
  1072 0001:000063c2  1073 0001:000063ca  1074 0001:000063dd  1077 0001:000063f5
  1078 0001:00006404  1081 0001:00006411  1084 0001:0000641b  1087 0001:00006420
  1090 0001:0000642c  1092 0001:00006432  1093 0001:0000643b  1098 0001:00006459
  1102 0001:0000646b  1105 0001:00006486  1108 0001:0000648d  1112 0001:0000649e
  1126 0001:000064b5  1131 0001:000064cf  1112 0001:000064e1  1117 0001:000064f4
  1120 0001:00006503  1121 0001:0000650a  1123 0001:0000652c  1131 0001:0000652e
  1133 0001:0000653b  1134 0001:00006548  1136 0001:0000655a  1138 0001:00006563
  1141 0001:00006570  1143 0001:00006576  1144 0001:00006583  1146 0001:0000659a
  1148 0001:000065aa  1151 0001:000065b9  1152 0001:000065f0  1153 0001:00006627
  1155 0001:0000665e  1156 0001:00006665  1157 0001:0000669c  1159 0001:000066b5
  1163 0001:000066cb  1166 0001:000066e3  1167 0001:000066f2  1170 0001:0000670f
  1188 0001:00006725  1189 0001:00006734  1173 0001:00006752  1174 0001:0000675d
  1175 0001:0000676c  1178 0001:00006793  1181 0001:000067bd  1182 0001:000067e1
  1194 0001:00006805  1195 0001:0000680d  1196 0001:00006815  1199 0001:0000682c
  1202 0001:0000683f  1205 0001:00006851  1209 0001:00006867  1212 0001:00006875
  1213 0001:0000687b  1217 0001:0000687f  1220 0001:000068aa  1223 0001:000068b0
  1226 0001:000068b6  1227 0001:000068c4  1230 0001:000068cc  1231 0001:000068d5
  1232 0001:000068e5  1236 0001:00006903  1241 0001:00006919  1242 0001:0000692b
  1244 0001:0000695c  1245 0001:0000695f  1249 0001:00006990  1252 0001:000069ab
  1258 0001:000069cc  1261 0001:000069d3  1264 0001:000069f5  1267 0001:000069fc
  1270 0001:00006a09  1273 0001:00006a1b  1276 0001:00006a3a  1277 0001:00006a49
  1284 0001:00006a7f  1287 0001:00006a97  1290 0001:00006aa2  1291 0001:00006ab3
  1295 0001:00006acb  1297 0001:00006ad0  1298 0001:00006ad7  1302 0001:00006aed
  1305 0001:00006b0f  1308 0001:00006b1e  1309 0001:00006b30  1310 0001:00006b3a
  1311 0001:00006b44  1312 0001:00006b5e  1317 0001:00006b72  1318 0001:00006b78
  1319 0001:00006b83  1321 0001:00006bae  1327 0001:00006bd7  1328 0001:00006be1
  1340 0001:00006bf0  1341 0001:00006c1d  1344 0001:00006c33  1345 0001:00006c55
  1346 0001:00006c6a  1348 0001:00006c7f  1351 0001:00006c91  1352 0001:00006c93
  1356 0001:00006cb0  1359 0001:00006ccb  1365 0001:00006cef  1368 0001:00006cf6
  1371 0001:00006d00  1374 0001:00006d0b  1375 0001:00006d1a  1376 0001:00006d29
  1379 0001:00006d32  1380 0001:00006d44  1381 0001:00006d50  1384 0001:00006d5a
  1385 0001:00006d64  1386 0001:00006d6e  1387 0001:00006d78  1390 0001:00006d82
  1391 0001:00006d8e  1392 0001:00006d94  1393 0001:00006d9e  1397 0001:00006da8
  1400 0001:00006db5  1402 0001:00006dbd  1403 0001:00006dd7  1405 0001:00006de2
  1406 0001:00006df0  1409 0001:00006e08  1412 0001:00006e17  1413 0001:00006e35
  1414 0001:00006e3f  1417 0001:00006e4c  1424 0001:00006e69  1427 0001:00006ecb
  1428 0001:00006ed7  1431 0001:00006eed  1432 0001:00006efb  1433 0001:00006f08
  1436 0001:00006f1d  1438 0001:00006f34  1439 0001:00006f3e  1440 0001:00006f63
  1443 0001:00006f72  1445 0001:00006f7c  1446 0001:00006f9b  1447 0001:00006fa5
  1449 0001:00006fb2  1457 0001:00007014  1461 0001:0000702d  1462 0001:00007045
  1465 0001:00007050  1466 0001:00007059  1467 0001:0000706b  1468 0001:0000708e
  1471 0001:00007099  1475 0001:000070a3  1476 0001:000070b2  1477 0001:000070c0
  1478 0001:000070ce  1481 0001:000070dc  1483 0001:000070ec  1486 0001:000070f3
  1488 0001:000070fa  1492 0001:00007101  1493 0001:0000711b  1494 0001:0000713b
  1495 0001:0000715b  1498 0001:00007175  1499 0001:0000717c  1502 0001:00007187
  1503 0001:0000718d  1506 0001:00007198  1508 0001:000071a4  1509 0001:000071ac
  1513 0001:000071af  1514 0001:000071cb  1517 0001:000071d8  1519 0001:000071dc
  1520 0001:000071fa  1527 0001:0000720a  1528 0001:0000721c  1530 0001:00007240
  1531 0001:0000724f  1697 0001:00007280  1699 0001:00007283  1736 0001:00007290
  1700 0001:00007292  1703 0001:000072b7  1704 0001:000072bd  1707 0001:000072d1
  1711 0001:000072d3  1714 0001:000072e3  1718 0001:000072ed  1721 0001:00007308
  1723 0001:0000730f  1726 0001:0000731d  1735 0001:0000732a  1736 0001:0000732d
  1733 0001:0000732e  1735 0001:0000733f  1736 0001:00007342  1700 0001:00007344
  1736 0001:00007347   178 0001:00007350   179 0001:00007350   257 0001:00007373
   258 0001:00007376   241 0001:00007379   249 0001:00007394   254 0001:000073ad
   243 0001:000073b2   244 0001:000073d8   258 0001:000073ef   221 0001:000073f2
   223 0001:0000741d   258 0001:00007438   228 0001:0000743b   230 0001:00007466
   233 0001:0000746d   183 0001:00007472   187 0001:00007485   191 0001:000074b4
   193 0001:000074c7   194 0001:000074c8   196 0001:000074d0   202 0001:000074db
   205 0001:000074ec   216 0001:000074fa   258 0001:000074fd   203 0001:00007500
   216 0001:0000750a   258 0001:0000750d   211 0001:00007510   213 0001:0000751e
   216 0001:00007537   258 0001:0000753a   307 0001:00007540   306 0001:00007540
   311 0001:0000755b   364 0001:0000756e   315 0001:00007571   364 0001:00007584
   319 0001:00007587   364 0001:0000759a   323 0001:0000759d   364 0001:000075b0
   327 0001:000075b3   364 0001:000075c6   331 0001:000075c9   364 0001:000075dc
   337 0001:000075df   340 0001:000075e7   363 0001:000075f9   364 0001:000075fc
   345 0001:000075ff   364 0001:00007612   351 0001:00007615   364 0001:00007620
   354 0001:00007624   355 0001:0000763d   363 0001:0000765b   364 0001:0000765e
    23 0001:000198c0

Line numbers for .\Release_Unicode\GameClientEngine.obj(h:\ry\\\\ d3d\gameclientview.h) segment .text

   363 0001:00002170   365 0001:00002190

Line numbers for .\Release_Unicode\GameClientEngine.obj(h:\ry\\\\ d3d\cardcontrol.h) segment .text

   215 0001:00002130   241 0001:00002140   263 0001:00002150   265 0001:00002160

Line numbers for .\Release_Unicode\GameClient.obj(h:\ry\\\include\module.h) segment .text

    45 0001:00001fb0    44 0001:00001fb0    46 0001:00001fb7    50 0001:00001fc0
    51 0001:00001fc0    52 0001:00001fc7    57 0001:00001fd0    56 0001:00001fd0
    58 0001:00001fd7    62 0001:00001fe0    63 0001:00001fe0    64 0001:00001fe4
    69 0001:00001ff0    68 0001:00001ff0    74 0001:00001ffe    70 0001:00001fff
    71 0001:00002013    72 0001:00002017    74 0001:0000202a

Line numbers for .\Release_Unicode\GameClient.obj(c:\program files (x86)\microsoft visual studio .net 2003\vc7\atlmfc\include\afx.inl) segment .text

    31 0001:00001f90    37 0001:00001fa0

Line numbers for .\Release_Unicode\GameClient.obj(h:\ry\\\\ d3d\gameclient.cpp) segment .text

    15 0001:00001f60    16 0001:00001f6f    20 0001:00001f80    21 0001:00001f86
    25 0001:00002050    26 0001:00002066    27 0001:00002089    31 0001:000020b0
    33 0001:000020be    37 0001:000020e3    38 0001:00002107     9 0001:000198a0

Line numbers for .\Release_Unicode\ChatMessage.obj(h:\ry\\\\ d3d\chatmessage.cpp) segment .text

     6 0001:00001e50     7 0001:00001e66    10 0001:00001e70    11 0001:00001e7d
    15 0001:00001e90    16 0001:00001eac    17 0001:00001eb4    19 0001:00001eba
    20 0001:00001ecb    21 0001:00001ef0    23 0001:00001ef4    26 0001:00001f0a
    27 0001:00001f1d    28 0001:00001f27

Line numbers for .\Release_Unicode\ChatEdit.obj(c:\program files (x86)\microsoft visual studio .net 2003\vc7\atlmfc\include\afxcmn.inl) segment .text

   628 0001:00001980   738 0001:000019f0

Line numbers for .\Release_Unicode\ChatEdit.obj(c:\program files (x86)\microsoft visual studio .net 2003\vc7\atlmfc\include\afxwin2.inl) segment .text

    58 0001:00001890   105 0001:000018d0   107 0001:000018f0   135 0001:00001910
   282 0001:00001930   360 0001:00001950   406 0001:00001960   454 0001:00001970
   545 0001:000019a0   549 0001:000019b0   551 0001:000019c0

Line numbers for .\Release_Unicode\ChatEdit.obj(c:\program files (x86)\microsoft visual studio .net 2003\vc7\atlmfc\include\afxwin1.inl) segment .text

    80 0001:000017d0    82 0001:000017e0    84 0001:00001820   153 0001:00001830
   155 0001:00001840   157 0001:00001850   169 0001:00001870   168 0001:00001870

Line numbers for .\Release_Unicode\ChatEdit.obj(c:\program files (x86)\microsoft visual studio .net 2003\vc7\atlmfc\include\afx.inl) segment .text

    21 0001:000017b0    23 0001:000017c0    25 0001:000017f0    41 0001:00001800
    43 0001:00001810

Line numbers for .\Release_Unicode\ChatEdit.obj(c:\program files (x86)\microsoft visual studio .net 2003\vc7\atlmfc\include\atltypes.inl) segment .text

   110 0001:00001780   112 0001:00001790

Line numbers for .\Release_Unicode\ChatEdit.obj(h:\ry\\\\ d3d\chatedit.cpp) segment .text

     9 0001:000016e0     9 0001:000016f0   142 0001:00001700   141 0001:00001700
   144 0001:00001704   148 0001:00001716   164 0001:00001730   163 0001:00001730
   199 0001:00001740   200 0001:00001740   201 0001:00001759   204 0001:00001765
   208 0001:00001770   207 0001:00001770    24 0001:00001a10    25 0001:00001a6f
    26 0001:00001a84    27 0001:00001a8c    31 0001:00001ab0    32 0001:00001ad3
    36 0001:00001b30    37 0001:00001b38    38 0001:00001b43    42 0001:00001b51
    45 0001:00001b60    46 0001:00001b74    47 0001:00001b82    49 0001:00001b8c
    51 0001:00001b8e    53 0001:00001ba0    54 0001:00001ba8    57 0001:00001bb6
    60 0001:00001bc4    65 0001:00001bce    67 0001:00001bed    70 0001:00001c1d
    72 0001:00001c36    74 0001:00001c51    78 0001:00001c60    80 0001:00001c66
    81 0001:00001c75   103 0001:00001c84   106 0001:00001cac   112 0001:00001cc0
   110 0001:00001cc0   115 0001:00001cc4   118 0001:00001cd5   122 0001:00001ce0
   124 0001:00001ce4   126 0001:00001cf2   128 0001:00001cf9   131 0001:00001d0c
   134 0001:00001d22   137 0001:00001d32   157 0001:00001d40   156 0001:00001d40
   160 0001:00001d57   171 0001:00001d60   172 0001:00001d63   173 0001:00001d6d
   181 0001:00001d70   175 0001:00001d73   178 0001:00001d86   180 0001:00001d8d
   181 0001:00001d90   184 0001:00001da0   185 0001:00001da0   188 0001:00001da5
   191 0001:00001db0   192 0001:00001db1   193 0001:00001dc1   196 0001:00001dc9
   213 0001:00001dd0   212 0001:00001dd0   215 0001:00001de3

Line numbers for .\Release_Unicode\CardControl.obj(c:\program files (x86)\microsoft visual studio .net 2003\vc7\atlmfc\include\afxwin2.inl) segment .text

    44 0001:00000bf0

Line numbers for .\Release_Unicode\CardControl.obj(c:\program files (x86)\microsoft visual studio .net 2003\vc7\atlmfc\include\afxwin1.inl) segment .text

    24 0001:00000be0    23 0001:00000be0

Line numbers for .\Release_Unicode\CardControl.obj(c:\program files (x86)\microsoft visual studio .net 2003\vc7\atlmfc\include\atltypes.inl) segment .text

    22 0001:00000ba0    43 0001:00000bb0    61 0001:00000bc0    80 0001:00000bd0

Line numbers for .\Release_Unicode\CardControl.obj(h:\ry\\\\ d3d\cardcontrol.cpp) segment .text

    29 0001:00000010    30 0001:00000034    66 0001:000000b0    67 0001:000000b1
    68 0001:000000d4    70 0001:000000ea    73 0001:000000f0    76 0001:000000f0
    82 0001:00000104    85 0001:00000107    77 0001:0000010a    82 0001:0000011a
    85 0001:0000011d    78 0001:00000120    82 0001:00000130    85 0001:00000133
    79 0001:00000136    82 0001:00000146    85 0001:00000149    80 0001:0000014c
    82 0001:0000015c    85 0001:0000015f    81 0001:00000162    82 0001:00000172
    85 0001:00000175    82 0001:00000178    85 0001:0000018b    91 0001:00000190
    89 0001:00000190    97 0001:00000198   100 0001:000001a1    92 0001:000001a4
   100 0001:000001b1    93 0001:000001b4    97 0001:000001b8   100 0001:000001c4
    94 0001:000001c7   100 0001:000001d7    95 0001:000001da    97 0001:000001de
   100 0001:000001ea    96 0001:000001ed   100 0001:000001fd    97 0001:00000200
   100 0001:00000210   146 0001:00000220   147 0001:00000243   154 0001:00000280
   151 0001:00000280   165 0001:0000028a   161 0001:0000028d   162 0001:00000290
   164 0001:000002c3   165 0001:000002c5   169 0001:000002d0   172 0001:000002d1
   189 0001:000002dd   182 0001:000002e0   184 0001:00000300   185 0001:00000304
   188 0001:00000310   189 0001:00000313   195 0001:00000320   193 0001:00000320
   199 0001:00000325   201 0001:00000340   203 0001:0000034a   207 0001:0000036c
   208 0001:0000036f   214 0001:00000380   212 0001:00000380   215 0001:00000384
   217 0001:0000038e   218 0001:00000390   222 0001:000003a0   227 0001:000003a1
   229 0001:000003b0   231 0001:000003bf   232 0001:000003c4   237 0001:000003d0
   250 0001:000003e1   241 0001:000003f0   239 0001:00000408   241 0001:0000040e
   244 0001:00000410   250 0001:00000426   251 0001:0000042b   255 0001:00000430
   260 0001:00000431   262 0001:00000441   264 0001:00000455   265 0001:00000457
   264 0001:00000463   270 0001:00000467   272 0001:00000480   274 0001:00000491
   275 0001:00000496   279 0001:000004a7   280 0001:000004ad   284 0001:000004c0
   289 0001:000004d1   290 0001:000004e3   291 0001:000004f1   292 0001:000004f9
   293 0001:00000503   296 0001:0000050b   297 0001:00000515   376 0001:00000518
   302 0001:00000527   306 0001:0000052d   309 0001:00000547   310 0001:00000570
   313 0001:0000057c   316 0001:0000058f   318 0001:000005a1   320 0001:000005cc
   321 0001:000005ce   323 0001:000005d8   327 0001:000005e6   316 0001:000005ec
   364 0001:000005f5   338 0001:000005f9   375 0001:00000602   342 0001:00000620
   364 0001:00000632   344 0001:00000634   351 0001:00000644   354 0001:0000064e
   356 0001:00000660   360 0001:00000674   375 0001:00000680   364 0001:00000690
   366 0001:000006a4   372 0001:000006b6   376 0001:000006b9   380 0001:000006e0
   383 0001:000006e0   397 0001:000006ed   399 0001:00000715   400 0001:00000719
   404 0001:00000726   406 0001:0000072f   407 0001:00000731   383 0001:00000734
   407 0001:00000736   411 0001:00000740   413 0001:0000074e   414 0001:00000753
   418 0001:00000756   421 0001:00000779   422 0001:0000077b   424 0001:00000790
   426 0001:00000796   427 0001:00000797   432 0001:000007a0   435 0001:000007a9
   436 0001:000007ab   438 0001:000007b0   440 0001:000007bc   445 0001:000007d7
   449 0001:000007e0   453 0001:00000800   456 0001:0000080c   504 0001:0000081f
   459 0001:0000082e   460 0001:00000830   462 0001:00000848   464 0001:0000084d
   460 0001:0000084f   469 0001:00000855   472 0001:0000086b   476 0001:00000880
   480 0001:00000887   483 0001:000008a2   485 0001:000008b0   488 0001:000008bd
   491 0001:000008c7   493 0001:000008d9   496 0001:000008db   500 0001:000008fc
   504 0001:000008ff   508 0001:00000930   510 0001:00000930   511 0001:00000940
   517 0001:0000094b   519 0001:00000968   520 0001:0000096a   522 0001:00000983
   524 0001:00000985   525 0001:00000989   529 0001:0000099e   531 0001:000009b4
   532 0001:000009b7   511 0001:000009bb   532 0001:000009be   536 0001:000009d0
   537 0001:000009d0   538 0001:000009e3   537 0001:000009e6   538 0001:000009e8
   552 0001:000009f0   549 0001:000009f0   561 0001:00000a01   555 0001:00000a04
   557 0001:00000a10   560 0001:00000a27   561 0001:00000a2b   565 0001:00000a30
   570 0001:00000a30   574 0001:00000a42   577 0001:00000a48   581 0001:00000a70
   587 0001:00000a80   585 0001:00000a80   590 0001:00000a87   594 0001:00000a90
   596 0001:00000a90   599 0001:00000a97   605 0001:00000aa0   603 0001:00000aa0
   606 0001:00000aa4   607 0001:00000aab   610 0001:00000ab5   634 0001:00000ac0
   632 0001:00000ac0   636 0001:00000ac7   637 0001:00000ada   642 0001:00000adf
   646 0001:00000aed   641 0001:00000af0   642 0001:00000b03   646 0001:00000b16
   652 0001:00000b20   650 0001:00000b20   653 0001:00000b24   654 0001:00000b2b
   655 0001:00000b32   658 0001:00000b3c  1010 0001:00000b40  1011 0001:00000b41
  1013 0001:00000b74  1016 0001:00000b80  1017 0001:00000b80  1018 0001:00000b84
  1021 0001:00000b8e    20 0001:00000c40    25 0001:00000cbd    34 0001:00000d00
    36 0001:00000d06    37 0001:00000d0e    38 0001:00000d29    40 0001:00000d44
    43 0001:00000d60    44 0001:00000d95    48 0001:00000dd3    51 0001:00000e1b
    54 0001:00000e20    55 0001:00000e26    56 0001:00000e3c    57 0001:00000e58
    58 0001:00000e6a    60 0001:00000e86    61 0001:00000ebb    63 0001:00000f00
   106 0001:00000f10   108 0001:00000f4f   110 0001:00000f52   111 0001:00000f55
   119 0001:00000f58   120 0001:00000f5b   123 0001:00000f5f   124 0001:00000f62
   125 0001:00000f6d   126 0001:00000f81   142 0001:00000fa4   662 0001:00001000
   663 0001:00001003   666 0001:00001018   669 0001:0000101c   672 0001:00001035
   673 0001:00001039   676 0001:0000103f   677 0001:00001045   682 0001:0000105c
   885 0001:00001060   888 0001:00001066   891 0001:0000107b   893 0001:0000107f
   894 0001:0000108f   903 0001:000010a7   894 0001:000010ad   903 0001:000010b2
   898 0001:000010b8   899 0001:000010be   903 0001:000010d7   899 0001:000010dd
   903 0001:000010e3   907 0001:000010f0   910 0001:000010f4   913 0001:00001100
   915 0001:00001109   919 0001:00001119   918 0001:00001124   917 0001:00001136
   922 0001:00001139   924 0001:0000113b   928 0001:00001146   926 0001:00001165
   934 0001:00001180   938 0001:0000118e   942 0001:00001199   937 0001:0000119f
   942 0001:000011b1   936 0001:000011b7   942 0001:000011be   946 0001:000011d0
   948 0001:000011d8   953 0001:000011ee   954 0001:000011f8   958 0001:00001204
   961 0001:00001219   962 0001:00001223   965 0001:0000122e   966 0001:0000123c
   969 0001:00001246   970 0001:00001250   973 0001:00001258   976 0001:00001260
   979 0001:00001264   982 0001:00001269   985 0001:0000127c   986 0001:00001283
   987 0001:00001292   973 0001:000012a1   991 0001:000012af   992 0001:000012b5
   998 0001:000012c0   996 0001:000012c0  1001 0001:000012cf  1004 0001:000012d0
  1005 0001:000012d0  1007 0001:000012df   543 0001:000012e0   542 0001:000012e0
   544 0001:000012f1   545 0001:00001302   544 0001:00001305   545 0001:00001308
   614 0001:00001310   617 0001:00001314   621 0001:00001320   624 0001:0000132c
   625 0001:00001341   628 0001:00001354   688 0001:00001360   686 0001:00001360
   691 0001:00001366   694 0001:00001370   696 0001:00001374   697 0001:0000138f
   702 0001:00001391   701 0001:00001394   702 0001:00001396   706 0001:000013a0
   709 0001:000013a5   722 0001:000013b1   723 0001:000013ce   726 0001:000013de
   730 0001:000013f5   736 0001:00001415   737 0001:00001433   740 0001:0000143b
   742 0001:00001445   749 0001:0000144d   750 0001:0000145b   744 0001:00001463
   753 0001:00001473   756 0001:00001488   755 0001:0000149b   759 0001:0000149f
   761 0001:000014a5   767 0001:000014ab   768 0001:000014b8   770 0001:000014d0
   773 0001:000014d2   778 0001:000014dc   781 0001:000014e2   784 0001:000014ee
   793 0001:00001501   796 0001:00001558   799 0001:0000155d   800 0001:00001563
   801 0001:00001591   813 0001:00001596   816 0001:0000159c   818 0001:000015a9
   827 0001:000015af   828 0001:000015b5   831 0001:000015b9   827 0001:000015bb
   828 0001:000015c3   831 0001:000015c7   834 0001:000015c9   836 0001:000015d1
   837 0001:000015d4   838 0001:000015de   839 0001:000015e2   842 0001:000015ea
   844 0001:000015ec   846 0001:000015f2   847 0001:000015fa   850 0001:0000160a
   860 0001:0000160e   873 0001:00001686   875 0001:00001694   881 0001:000016d9
    14 0001:00019880

Line numbers for .\Release_Unicode\CardControl.obj(h:\ry\\\\ d3d\gamelogic.h) segment .text

    67 0001:00000000

Line numbers for C:\Program Files (x86)\Microsoft Visual Studio .NET 2003\Vc7\atlmfc\lib\mfcs71u.lib(f:\vs70builds\3077\vc\mfcatl\ship\atlmfc\include\atlbase.h) segment .text

  2602 0001:000198f6

Line numbers for C:\Program Files (x86)\Microsoft Visual Studio .NET 2003\Vc7\atlmfc\lib\mfcs71u.lib(f:\vs70builds\3077\vc\mfcatl\ship\atlmfc\include\atlcomcli.h) segment .text

   629 0001:00016f44   628 0001:00016f44   630 0001:00016f4c

Line numbers for C:\Program Files (x86)\Microsoft Visual Studio .NET 2003\Vc7\atlmfc\lib\mfcs71u.lib(f:\vs70builds\3077\vc\mfcatl\ship\atlmfc\src\mfc\appmodul.cpp) segment .text

    24 0001:00018164    22 0001:00018164    32 0001:00018169    31 0001:00018169
    33 0001:0001816e    37 0001:00018175    44 0001:0001817f    45 0001:00018182
    66 0001:00019938

Line numbers for C:\Program Files (x86)\Microsoft Visual Studio .NET 2003\Vc7\lib\msvcrt.lib(f:\vs70builds\3077\vc\crtbld\crt\src\atonexit.c) segment .text

    81 0001:000172cd    76 0001:000172cd    90 0001:000172f2    96 0001:000172f3
    95 0001:000172f3    97 0001:00017304

Line numbers for C:\Program Files (x86)\Microsoft Visual Studio .NET 2003\Vc7\lib\msvcrt.lib(f:\vs70builds\3077\vc\crtbld\crt\src\merr.c) segment .text

    33 0001:00017604    32 0001:00017604    34 0001:00017606

Line numbers for C:\Program Files (x86)\Microsoft Visual Studio .NET 2003\Vc7\lib\msvcrt.lib(f:\vs70builds\3077\vc\crtbld\crt\src\ti_inst.cpp) segment .text

    17 0001:00017474    18 0001:0001747c    21 0001:000174ca    23 0001:000174cc

Line numbers for C:\Program Files (x86)\Microsoft Visual Studio .NET 2003\Vc7\lib\msvcrt.lib(f:\vs70builds\3077\vc\crtbld\crt\src\crtexe.c) segment .text

   454 0001:00016fa1   448 0001:00016fa1   455 0001:00016fa9   456 0001:00016fae
   459 0001:00016fb0   460 0001:00016fb5   461 0001:00016fbb   464 0001:00016fbd
   485 0001:00016fcf   486 0001:00016fd1   478 0001:00016fd2   481 0001:00016fdd
   469 0001:00016fe5   472 0001:00016fed   486 0001:00016ff6   202 0001:00016ff7
   214 0001:00017003   222 0001:00017008   229 0001:00017063   234 0001:00017066
   244 0001:0001706f   249 0001:0001707d   250 0001:0001708b   257 0001:00017099
   264 0001:000170a5   273 0001:000170aa   282 0001:000170af   283 0001:000170b7
   286 0001:000170c3   305 0001:000170c8   308 0001:000170d7   319 0001:000170e1
   322 0001:000170e9   329 0001:0001710b   330 0001:0001710f   336 0001:00017117
   345 0001:00017128   346 0001:00017137   347 0001:00017141   353 0001:00017144
   372 0001:00017157   373 0001:00017165   374 0001:0001716a   376 0001:0001716c
   377 0001:0001716f   390 0001:0001717c   403 0001:0001719c   404 0001:000171a1
   406 0001:000171a8   358 0001:000171b0   366 0001:000171c1   367 0001:000171c3
   409 0001:000171c8   415 0001:000171df   417 0001:000171e2   418 0001:000171e8
   420 0001:000171ef   424 0001:000171f9   425 0001:000171fb

Line numbers for C:\Program Files (x86)\Microsoft Visual Studio .NET 2003\Vc7\lib\msvcrt.lib(f:\vs70builds\3077\vc\crtbld\crt\src\dllargv.c) segment .text

    49 0001:00017607    48 0001:00017607    50 0001:00017609

Line numbers for C:\Program Files (x86)\Microsoft Visual Studio .NET 2003\Vc7\lib\msvcrt.lib(f:\vs70builds\3077\vc\crtbld\crt\src\intel\fp8.c) segment .text

    19 0001:000175ec    18 0001:000175ec    20 0001:000175fd

Line numbers for C:\Program Files (x86)\Microsoft Visual Studio .NET 2003\Vc7\lib\msvcrt.lib(f:\vs70builds\3077\vc\crtbld\crt\src\secchk.c) segment .text

   114 0001:00017210   116 0001:0001721c   117 0001:00017220   119 0001:0001722d
   123 0001:00017238   100 0001:00017241   103 0001:00017241   104 0001:00017247
   105 0001:00017249   107 0001:0001724a

Line numbers for C:\Program Files (x86)\Microsoft Visual Studio .NET 2003\Vc7\lib\msvcrt.lib(f:\vs70builds\3077\vc\crtbld\crt\src\seccinit.c) segment .text

    49 0001:0001761c    58 0001:00017622    67 0001:00017633    70 0001:0001763d
    75 0001:00017643    76 0001:0001764b    77 0001:00017653    79 0001:0001765b
    93 0001:00017665    94 0001:00017680

Line numbers for C:\Program Files (x86)\Microsoft Visual Studio .NET 2003\Vc7\atlmfc\lib\atls.lib(f:\vs70builds\3077\vc\mfcatl\ship\atlmfc\src\atl\atls\atlbase.cpp) segment .text

    67 0001:000179c3    68 0001:000179c6    69 0001:000179d0    84 0001:000179d9
    85 0001:000179e2    86 0001:000179e6    92 0001:000179f0    94 0001:000179fe
   100 0001:00017a15   101 0001:00017a22    96 0001:00017a26   103 0001:00017a32
   104 0001:00017a3a   105 0001:00017a3d   111 0001:00017a47   116 0001:00017a59
   118 0001:00017a5d   121 0001:00017a62   113 0001:00017a71   122 0001:00017a7c
    29 0001:00017acb    32 0001:00017ae6    36 0001:00017aeb    38 0001:00017b0e
    39 0001:00017b1f    41 0001:00017b25    46 0001:00017b2b    49 0001:00017b33
    51 0001:00017b41    58 0001:00017b45    62 0001:00017b5f    64 0001:00017b66
    72 0001:00017b76    73 0001:00017b7f    74 0001:00017b82    80 0001:00017b8c
    81 0001:00017bad   126 0001:0001990c

Line numbers for C:\Program Files (x86)\Microsoft Visual Studio .NET 2003\Vc7\atlmfc\lib\atls.lib(f:\vs70builds\3077\vc\mfcatl\ship\atlmfc\include\atlbase.h) segment .text

   312 0001:000178f9   316 0001:000178fc   321 0001:00017904   323 0001:00017908
   324 0001:0001790b   328 0001:00017950   330 0001:00017953   331 0001:0001795b
   332 0001:00017960   288 0001:00017961   289 0001:00017961   293 0001:00017975
   294 0001:0001797a   296 0001:0001797e   299 0001:00017984   303 0001:0001798a
   304 0001:0001798d   306 0001:00017993   308 0001:000179a0  2602 0001:00019922

Line numbers for C:\Program Files (x86)\Microsoft Visual Studio .NET 2003\Vc7\atlmfc\lib\atls.lib(f:\vs70builds\3077\vc\mfcatl\ship\atlmfc\include\atlcore.h) segment .text

   120 0001:000178e5   119 0001:000178e5   121 0001:000178ec   122 0001:000178ee
   125 0001:000178ef   124 0001:000178ef   126 0001:000178f6   127 0001:000178f8

Line numbers for C:\Program Files (x86)\Microsoft Visual Studio .NET 2003\Vc7\atlmfc\lib\atls.lib(f:\vs70builds\3077\vc\mfcatl\ship\atlmfc\include\atlexcept.h) segment .text

    95 0001:000178c1    91 0001:000178c1   103 0001:000178cb

Line numbers for C:\Program Files (x86)\Microsoft Visual Studio .NET 2003\Vc7\atlmfc\lib\atls.lib(f:\vs70builds\3077\vc\mfcatl\ship\atlmfc\include\atlsimpcoll.h) segment .text

    97 0001:0001783e   136 0001:0001784b   135 0001:0001784b   137 0001:0001784e
   162 0001:0001784f   164 0001:0001784f   167 0001:00017861   168 0001:00017868
   169 0001:00017884   170 0001:00017887   165 0001:0001788c   171 0001:0001788f
   173 0001:00017892   174 0001:00017895   178 0001:0001789b   179 0001:000178a1
   181 0001:000178a5   182 0001:000178a9   183 0001:000178ae   230 0001:000178af
   231 0001:000178b9   233 0001:000178bc   235 0001:000178bc   236 0001:000178c0
   101 0001:0001790c   100 0001:0001790c   196 0001:00017911   194 0001:00017911
   200 0001:0001791e   201 0001:00017923   247 0001:00017938   246 0001:00017938
   248 0001:0001794d   139 0001:00017a80   140 0001:00017a83   143 0001:00017a8e
   144 0001:00017a9a   145 0001:00017aa7   147 0001:00017aad   148 0001:00017ab0
   150 0001:00017ab2   151 0001:00017ac0   152 0001:00017ac3   153 0001:00017ac8
